(dp0
S'all'
p1
(lp2
(dp3
S'x'
p4
(lp5
I0
aI10
aI20
aI30
aI40
aI50
aI60
aI70
aI80
aI90
aI100
aI110
aI120
asS'pos'
p6
(lp7
I0
aI7
aI12
aI18
aI22
aI27
aI31
aI32
aI35
aI38
aI40
aI44
aI46
asa(dp8
g4
(lp9
I0
aI10
aI20
aI30
aI40
aI50
aI60
aI70
aI80
aI90
aI100
aI110
asg6
(lp10
I0
aI6
aI12
aI17
aI24
aI29
aI32
aI36
aI39
aI42
aI44
aI46
asa(dp11
g4
(lp12
I0
aI10
aI20
aI30
aI40
aI50
aI60
aI70
aI80
aI90
aI100
asg6
(lp13
I0
aI7
aI13
aI17
aI22
aI28
aI35
aI38
aI42
aI44
aI46
asa(dp14
g4
(lp15
I0
aI10
aI20
aI30
aI40
aI50
aI60
aI70
aI80
aI90
aI100
aI110
asg6
(lp16
I0
aI8
aI12
aI16
aI21
aI27
aI34
aI36
aI40
aI43
aI45
aI48
asa(dp17
g4
(lp18
I0
aI10
aI20
aI30
aI40
aI50
aI60
aI70
aI80
aI90
aI100
aI110
asg6
(lp19
I0
aI7
aI12
aI18
aI23
aI28
aI34
aI38
aI40
aI43
aI45
aI46
asa(dp20
g4
(lp21
I0
aI10
aI20
aI30
aI40
aI50
aI60
aI70
aI80
aI90
aI100
aI110
aI120
asg6
(lp22
I0
aI7
aI12
aI18
aI24
aI26
aI30
aI36
aI41
aI41
aI44
aI45
aI47
asa(dp23
g4
(lp24
I0
aI10
aI20
aI30
aI40
aI50
aI60
aI70
aI80
aI90
aI100
asg6
(lp25
I0
aI5
aI12
aI18
aI25
aI30
aI34
aI36
aI40
aI42
aI46
asa(dp26
g4
(lp27
I0
aI10
aI20
aI30
aI40
aI50
aI60
aI70
aI80
aI90
aI100
aI110
asg6
(lp28
I0
aI7
aI12
aI18
aI23
aI30
aI33
aI34
aI38
aI42
aI43
aI46
asa(dp29
g4
(lp30
I0
aI10
aI20
aI30
aI40
aI50
aI60
aI70
aI80
aI90
aI100
aI110
asg6
(lp31
I0
aI6
aI12
aI17
aI23
aI29
aI34
aI37
aI42
aI43
aI44
aI46
asa(dp32
g4
(lp33
I0
aI10
aI20
aI30
aI40
aI50
aI60
aI70
aI80
aI90
aI100
aI110
aI120
asg6
(lp34
I0
aI6
aI13
aI18
aI24
aI27
aI32
aI38
aI40
aI42
aI44
aI45
aI46
asa(dp35
g4
(lp36
I0
aI10
aI20
aI30
aI40
aI50
aI60
aI70
aI80
aI90
aI100
aI110
asg6
(lp37
I0
aI6
aI11
aI16
aI23
aI29
aI35
aI38
aI40
aI42
aI45
aI46
asa(dp38
g4
(lp39
I0
aI10
aI20
aI30
aI40
aI50
aI60
aI70
aI80
aI90
aI100
aI110
aI120
asg6
(lp40
I0
aI5
aI11
aI17
aI26
aI30
aI33
aI38
aI39
aI41
aI44
aI45
aI47
asa(dp41
g4
(lp42
I0
aI10
aI20
aI30
aI40
aI50
aI60
aI70
aI80
aI90
aI100
aI110
aI120
asg6
(lp43
I0
aI8
aI13
aI18
aI22
aI28
aI32
aI38
aI39
aI42
aI43
aI44
aI46
asa(dp44
g4
(lp45
I0
aI10
aI20
aI30
aI40
aI50
aI60
aI70
aI80
aI90
aI100
aI110
asg6
(lp46
I0
aI7
aI14
aI16
aI22
aI28
aI32
aI39
aI42
aI43
aI44
aI47
asa(dp47
g4
(lp48
I0
aI10
aI20
aI30
aI40
aI50
aI60
aI70
aI80
aI90
aI100
aI110
asg6
(lp49
I0
aI7
aI12
aI17
aI23
aI29
aI31
aI34
aI37
aI41
aI45
aI46
asa(dp50
g4
(lp51
I0
aI10
aI20
aI30
aI40
aI50
aI60
aI70
aI80
aI90
aI100
aI110
aI120
asg6
(lp52
I0
aI5
aI9
aI16
aI21
aI29
aI33
aI38
aI39
aI42
aI45
aI45
aI46
asa(dp53
g4
(lp54
I0
aI10
aI20
aI30
aI40
aI50
aI60
aI70
aI80
aI90
aI100
aI110
aI120
asg6
(lp55
I0
aI6
aI12
aI19
aI25
aI29
aI32
aI39
aI41
aI43
aI45
aI45
aI47
asa(dp56
g4
(lp57
I0
aI10
aI20
aI30
aI40
aI50
aI60
aI70
aI80
aI90
aI100
aI110
aI120
asg6
(lp58
I0
aI7
aI12
aI15
aI22
aI29
aI31
aI36
aI40
aI41
aI43
aI44
aI46
asa(dp59
g4
(lp60
I0
aI10
aI20
aI30
aI40
aI50
aI60
aI70
aI80
aI90
aI100
aI110
asg6
(lp61
I0
aI5
aI11
aI18
aI23
aI27
aI32
aI38
aI43
aI45
aI45
aI47
asa(dp62
g4
(lp63
I0
aI10
aI20
aI30
aI40
aI50
aI60
aI70
aI80
aI90
aI100
aI110
asg6
(lp64
I0
aI6
aI12
aI18
aI24
aI27
aI35
aI38
aI38
aI43
aI45
aI47
asa(dp65
g4
(lp66
I0
aI10
aI20
aI30
aI40
aI50
aI60
aI70
aI80
aI90
aI100
aI110
aI120
asg6
(lp67
I0
aI6
aI11
aI18
aI25
aI29
aI33
aI37
aI41
aI42
aI44
aI44
aI47
asa(dp68
g4
(lp69
I0
aI10
aI20
aI30
aI40
aI50
aI60
aI70
aI80
aI90
aI100
aI110
aI120
asg6
(lp70
I0
aI8
aI13
aI17
aI22
aI29
aI34
aI37
aI42
aI43
aI44
aI45
aI47
asa(dp71
g4
(lp72
I0
aI10
aI20
aI30
aI40
aI50
aI60
aI70
aI80
aI90
aI100
aI110
aI120
asg6
(lp73
I0
aI8
aI12
aI16
aI22
aI27
aI33
aI38
aI41
aI44
aI45
aI45
aI46
asa(dp74
g4
(lp75
I0
aI10
aI20
aI30
aI40
aI50
aI60
aI70
aI80
aI90
aI100
aI110
aI120
asg6
(lp76
I0
aI6
aI12
aI17
aI25
aI28
aI34
aI38
aI39
aI43
aI44
aI44
aI46
asa(dp77
g4
(lp78
I0
aI10
aI20
aI30
aI40
aI50
aI60
aI70
aI80
aI90
aI100
aI110
aI120
asg6
(lp79
I0
aI5
aI12
aI15
aI23
aI30
aI32
aI36
aI41
aI43
aI44
aI45
aI46
asa(dp80
g4
(lp81
I0
aI10
aI20
aI30
aI40
aI50
aI60
aI70
aI80
aI90
aI100
aI110
aI120
asg6
(lp82
I0
aI6
aI12
aI16
aI24
aI31
aI32
aI35
aI38
aI40
aI44
aI45
aI48
asa(dp83
g4
(lp84
I0
aI10
aI20
aI30
aI40
aI50
aI60
aI70
aI80
aI90
aI100
asg6
(lp85
I0
aI7
aI12
aI16
aI22
aI27
aI34
aI36
aI42
aI45
aI46
asa(dp86
g4
(lp87
I0
aI10
aI20
aI30
aI40
aI50
aI60
aI70
aI80
aI90
aI100
aI110
aI120
asg6
(lp88
I0
aI6
aI11
aI17
aI21
aI26
aI31
aI38
aI42
aI43
aI44
aI44
aI47
asa(dp89
g4
(lp90
I0
aI10
aI20
aI30
aI40
aI50
aI60
aI70
aI80
aI90
aI100
aI110
aI120
asg6
(lp91
I0
aI6
aI11
aI17
aI19
aI25
aI29
aI31
aI32
aI35
aI42
aI44
aI46
asa(dp92
g4
(lp93
I0
aI10
aI20
aI30
aI40
aI50
aI60
aI70
aI80
aI90
aI100
aI110
asg6
(lp94
I0
aI6
aI12
aI17
aI24
aI26
aI27
aI30
aI36
aI40
aI44
aI47
asasS'part'
p95
(lp96
(dp97
g4
(lp98
I0
aI10
aI20
aI30
aI40
aI50
aI60
aI70
aI80
aI90
aI100
aI110
asg6
(lp99
I0
aI6
aI11
aI17
aI23
aI26
aI31
aI32
aI35
aI38
aI43
aI46
asa(dp100
g4
(lp101
I0
aI10
aI20
aI30
aI40
aI50
aI60
aI70
aI80
aI90
aI100
asg6
(lp102
I0
aI6
aI10
aI18
aI24
aI28
aI31
aI37
aI40
aI42
aI46
asa(dp103
g4
(lp104
I0
aI10
aI20
aI30
aI40
aI50
aI60
aI70
aI80
aI90
aI100
asg6
(lp105
I0
aI6
aI13
aI16
aI23
aI30
aI33
aI37
aI42
aI43
aI46
asa(dp106
g4
(lp107
I0
aI10
aI20
aI30
aI40
aI50
aI60
aI70
aI80
aI90
aI100
aI110
asg6
(lp108
I0
aI7
aI11
aI16
aI24
aI28
aI34
aI37
aI42
aI44
aI44
aI47
asa(dp109
g4
(lp110
I0
aI10
aI20
aI30
aI40
aI50
aI60
aI70
aI80
aI90
aI100
aI110
aI120
asg6
(lp111
I0
aI6
aI11
aI17
aI22
aI29
aI32
aI35
aI37
aI42
aI44
aI45
aI47
asa(dp112
g4
(lp113
I0
aI10
aI20
aI30
aI40
aI50
aI60
aI70
aI80
aI90
aI100
aI110
aI120
asg6
(lp114
I0
aI6
aI12
aI17
aI22
aI27
aI30
aI36
aI40
aI41
aI43
aI45
aI47
asa(dp115
g4
(lp116
I0
aI10
aI20
aI30
aI40
aI50
aI60
aI70
aI80
aI90
aI100
aI110
asg6
(lp117
I0
aI5
aI12
aI19
aI24
aI30
aI33
aI36
aI41
aI42
aI44
aI46
asa(dp118
g4
(lp119
I0
aI10
aI20
aI30
aI40
aI50
aI60
aI70
aI80
aI90
aI100
aI110
asg6
(lp120
I0
aI7
aI11
aI16
aI23
aI30
aI33
aI35
aI38
aI41
aI42
aI46
asa(dp121
g4
(lp122
I0
aI10
aI20
aI30
aI40
aI50
aI60
aI70
aI80
aI90
aI100
aI110
asg6
(lp123
I0
aI5
aI11
aI18
aI24
aI29
aI34
aI37
aI41
aI43
aI45
aI48
asa(dp124
g4
(lp125
I0
aI10
aI20
aI30
aI40
aI50
aI60
aI70
aI80
aI90
aI100
aI110
aI120
asg6
(lp126
I0
aI6
aI13
aI18
aI24
aI27
aI30
aI35
aI41
aI42
aI42
aI45
aI46
asa(dp127
g4
(lp128
I0
aI10
aI20
aI30
aI40
aI50
aI60
aI70
aI80
aI90
aI100
aI110
asg6
(lp129
I0
aI6
aI11
aI16
aI24
aI28
aI34
aI38
aI39
aI41
aI45
aI47
asa(dp130
g4
(lp131
I0
aI10
aI20
aI30
aI40
aI50
aI60
aI70
aI80
aI90
aI100
aI110
aI120
asg6
(lp132
I0
aI6
aI11
aI17
aI25
aI29
aI32
aI36
aI42
aI42
aI42
aI44
aI46
asa(dp133
g4
(lp134
I0
aI10
aI20
aI30
aI40
aI50
aI60
aI70
aI80
aI90
aI100
aI110
aI120
asg6
(lp135
I0
aI7
aI13
aI16
aI22
aI27
aI31
aI37
aI38
aI42
aI42
aI45
aI47
asa(dp136
g4
(lp137
I0
aI10
aI20
aI30
aI40
aI50
aI60
aI70
aI80
aI90
aI100
asg6
(lp138
I0
aI6
aI12
aI16
aI22
aI29
aI35
aI39
aI41
aI42
aI46
asa(dp139
g4
(lp140
I0
aI10
aI20
aI30
aI40
aI50
aI60
aI70
aI80
aI90
aI100
aI110
asg6
(lp141
I0
aI6
aI11
aI17
aI23
aI29
aI32
aI35
aI39
aI40
aI43
aI46
asa(dp142
g4
(lp143
I0
aI10
aI20
aI30
aI40
aI50
aI60
aI70
aI80
aI90
aI100
aI110
aI120
asg6
(lp144
I0
aI5
aI11
aI18
aI24
aI29
aI33
aI36
aI40
aI42
aI44
aI45
aI46
asa(dp145
g4
(lp146
I0
aI10
aI20
aI30
aI40
aI50
aI60
aI70
aI80
aI90
aI100
aI110
aI120
asg6
(lp147
I0
aI6
aI11
aI19
aI25
aI29
aI32
aI37
aI41
aI44
aI45
aI45
aI46
asa(dp148
g4
(lp149
I0
aI10
aI20
aI30
aI40
aI50
aI60
aI70
aI80
aI90
aI100
aI110
aI120
asg6
(lp150
I0
aI7
aI12
aI16
aI22
aI28
aI29
aI34
aI38
aI40
aI43
aI45
aI46
asa(dp151
g4
(lp152
I0
aI10
aI20
aI30
aI40
aI50
aI60
aI70
aI80
aI90
aI100
aI110
asg6
(lp153
I0
aI5
aI11
aI16
aI22
aI27
aI31
aI35
aI40
aI44
aI44
aI47
asa(dp154
g4
(lp155
I0
aI10
aI20
aI30
aI40
aI50
aI60
aI70
aI80
aI90
aI100
aI110
asg6
(lp156
I0
aI6
aI12
aI17
aI24
aI28
aI32
aI37
aI39
aI43
aI44
aI47
asa(dp157
g4
(lp158
I0
aI10
aI20
aI30
aI40
aI50
aI60
aI70
aI80
aI90
aI100
aI110
aI120
aI130
asg6
(lp159
I0
aI4
aI9
aI16
aI23
aI30
aI33
aI36
aI40
aI42
aI44
aI44
aI45
aI47
asa(dp160
g4
(lp161
I0
aI10
aI20
aI30
aI40
aI50
aI60
aI70
aI80
aI90
aI100
aI110
asg6
(lp162
I0
aI7
aI11
aI15
aI22
aI28
aI32
aI37
aI39
aI41
aI42
aI46
asa(dp163
g4
(lp164
I0
aI10
aI20
aI30
aI40
aI50
aI60
aI70
aI80
aI90
aI100
aI110
aI120
aI130
asg6
(lp165
I0
aI8
aI11
aI15
aI22
aI28
aI34
aI37
aI39
aI44
aI45
aI45
aI45
aI48
asa(dp166
g4
(lp167
I0
aI10
aI20
aI30
aI40
aI50
aI60
aI70
aI80
aI90
aI100
aI110
asg6
(lp168
I0
aI6
aI12
aI18
aI24
aI27
aI32
aI37
aI39
aI43
aI43
aI46
asa(dp169
g4
(lp170
I0
aI10
aI20
aI30
aI40
aI50
aI60
aI70
aI80
aI90
aI100
aI110
aI120
aI130
asg6
(lp171
I0
aI5
aI12
aI16
aI23
aI30
aI33
aI34
aI37
aI43
aI44
aI44
aI45
aI47
asa(dp172
g4
(lp173
I0
aI10
aI20
aI30
aI40
aI50
aI60
aI70
aI80
aI90
aI100
aI110
asg6
(lp174
I0
aI6
aI12
aI16
aI25
aI30
aI31
aI34
aI37
aI40
aI43
aI46
asa(dp175
g4
(lp176
I0
aI10
aI20
aI30
aI40
aI50
aI60
aI70
aI80
aI90
aI100
aI110
asg6
(lp177
I0
aI7
aI12
aI17
aI22
aI28
aI33
aI38
aI41
aI43
aI45
aI46
asa(dp178
g4
(lp179
I0
aI10
aI20
aI30
aI40
aI50
aI60
aI70
aI80
aI90
aI100
aI110
asg6
(lp180
I0
aI5
aI10
aI15
aI22
aI27
aI32
aI38
aI40
aI43
aI44
aI46
asa(dp181
g4
(lp182
I0
aI10
aI20
aI30
aI40
aI50
aI60
aI70
aI80
aI90
aI100
aI110
aI120
asg6
(lp183
I0
aI6
aI10
aI16
aI19
aI25
aI27
aI31
aI35
aI38
aI42
aI45
aI46
asa(dp184
g4
(lp185
I0
aI10
aI20
aI30
aI40
aI50
aI60
aI70
aI80
aI90
aI100
aI110
asg6
(lp186
I0
aI6
aI11
aI17
aI23
aI25
aI27
aI31
aI38
aI40
aI43
aI47
asas.