(dp0
S'start'
p1
(lp2
(dp3
S'x'
p4
(lp5
I0
aI10
aI20
aI30
aI40
aI50
aI60
aI70
aI80
aI90
aI100
aI110
aI120
aI130
aI140
aI150
aI160
aI170
aI180
aI190
aI200
aI210
aI220
aI230
aI240
aI250
aI260
aI270
aI280
aI290
aI300
aI310
aI320
aI330
aI340
aI350
aI360
aI370
aI380
aI390
aI400
aI410
aI420
aI430
aI440
aI450
aI460
aI470
aI480
aI490
aI500
aI510
aI520
aI530
aI540
aI550
aI560
aI570
aI580
aI590
aI600
aI610
aI620
aI630
aI640
aI650
aI660
aI670
aI680
aI690
aI700
aI710
aI720
aI730
aI740
asS'pos'
p6
(lp7
I0
aI0
aI0
aI0
aI1
aI1
aI1
aI1
aI2
aI2
aI3
aI3
aI3
aI4
aI6
aI6
aI7
aI9
aI9
aI10
aI10
aI10
aI11
aI11
aI11
aI11
aI12
aI13
aI13
aI14
aI15
aI15
aI16
aI16
aI16
aI16
aI17
aI17
aI17
aI17
aI17
aI17
aI17
aI17
aI17
aI17
aI17
aI17
aI17
aI17
aI17
aI17
aI17
aI17
aI17
aI17
aI17
aI17
aI17
aI17
aI17
aI17
aI17
aI17
aI17
aI17
aI17
aI17
aI17
aI17
aI17
aI17
aI17
aI17
aI18
asasS'update'
p8
(lp9
(dp10
S'x'
p11
(lp12
I0
aI10
aI20
aI30
aI40
aI50
aI60
aI70
aI80
aI90
aI100
aI110
aI120
aI130
aI140
aI150
aI160
aI170
aI180
aI190
aI200
aI210
aI220
aI230
aI240
aI250
aI260
aI270
aI280
aI290
aI300
aI310
aI320
aI330
aI340
aI350
aI360
aI370
aI380
aI390
aI400
aI410
aI420
aI430
aI440
aI450
aI460
aI470
aI480
aI490
aI500
aI510
aI520
aI530
aI540
aI550
aI560
aI570
aI580
aI590
aI600
asS'pos'
p13
(lp14
I0
aI2
aI2
aI4
aI6
aI7
aI7
aI7
aI8
aI9
aI9
aI10
aI10
aI12
aI12
aI12
aI13
aI13
aI13
aI13
aI13
aI13
aI13
aI13
aI14
aI14
aI14
aI14
aI14
aI14
aI14
aI15
aI15
aI15
aI15
aI15
aI15
aI15
aI15
aI15
aI15
aI15
aI15
aI15
aI15
aI15
aI15
aI15
aI16
aI16
aI16
aI16
aI16
aI16
aI16
aI16
aI16
aI17
aI17
aI17
aI18
asasS'reuse'
p15
(lp16
(dp17
g11
(lp18
I0
aI10
aI20
aI30
aI40
aI50
aI60
aI70
aI80
aI90
aI100
aI110
aI120
aI130
aI140
aI150
aI160
aI170
aI180
aI190
aI200
aI210
aI220
aI230
aI240
aI250
aI260
aI270
aI280
aI290
aI300
aI310
aI320
aI330
aI340
aI350
aI360
aI370
aI380
aI390
aI400
aI410
aI420
aI430
aI440
aI450
aI460
aI470
aI480
aI490
aI500
aI510
aI520
aI530
aI540
aI550
aI560
aI570
aI580
aI590
aI600
aI610
aI620
aI630
aI640
aI650
aI660
aI670
aI680
aI690
aI700
aI710
aI720
aI730
aI740
asg13
(lp19
I0
aI0
aI0
aI0
aI0
aI0
aI0
aI0
aI0
aI0
aI1
aI3
aI4
aI5
aI6
aI6
aI7
aI8
aI9
aI9
aI9
aI9
aI9
aI9
aI10
aI11
aI11
aI11
aI12
aI13
aI14
aI15
aI15
aI16
aI16
aI16
aI16
aI17
aI17
aI17
aI17
aI17
aI17
aI17
aI17
aI17
aI17
aI17
aI17
aI17
aI17
aI17
aI17
aI17
aI17
aI17
aI17
aI17
aI17
aI17
aI17
aI17
aI17
aI17
aI17
aI17
aI17
aI17
aI17
aI17
aI17
aI17
aI17
aI17
aI18
asas.