(dp0
S'update'
p1
(lp2
(dp3
S'x'
p4
(lp5
I0
aI10
aI20
aI30
aI40
aI50
aI60
aI70
aI80
aI90
aI100
aI110
aI120
aI130
aI140
aI150
aI160
aI170
aI180
aI190
aI200
aI210
aI220
aI230
aI240
aI250
aI260
aI270
aI280
aI290
aI300
aI310
aI320
aI330
aI340
aI350
aI360
aI370
aI380
aI390
aI400
aI410
aI420
aI430
asS'pos'
p6
(lp7
I0
aI1
aI3
aI5
aI7
aI9
aI10
aI11
aI16
aI18
aI19
aI23
aI24
aI26
aI27
aI31
aI33
aI36
aI40
aI42
aI44
aI45
aI46
aI48
aI48
aI49
aI50
aI51
aI51
aI51
aI53
aI54
aI54
aI55
aI55
aI55
aI55
aI55
aI55
aI55
aI55
aI55
aI55
aI56
asasS'reuse'
p8
(lp9
s.