(dp0
S'UPDATE+pne'
p1
(lp2
sS'POS'
p3
(lp4
(dp5
S'x'
p6
(lp7
I0
aI10
aI20
aI30
aI40
aI50
aI60
aI70
aI80
aI90
aI100
aI110
aI120
aI130
aI140
aI150
aI160
aI170
aI180
aI190
aI200
aI210
aI220
aI230
asS'pos'
p8
(lp9
I0
aI4
aI5
aI5
aI7
aI11
aI13
aI15
aI16
aI19
aI21
aI21
aI21
aI21
aI22
aI22
aI23
aI23
aI23
aI23
aI23
aI23
aI23
aI24
asa(dp10
g6
(lp11
I0
aI10
aI20
aI30
aI40
aI50
aI60
aI70
aI80
aI90
aI100
aI110
aI120
aI130
aI140
aI150
aI160
aI170
aI180
aI190
aI200
aI210
aI220
aI230
aI240
asg8
(lp12
I0
aI3
aI4
aI7
aI9
aI10
aI11
aI12
aI13
aI15
aI17
aI20
aI20
aI20
aI20
aI21
aI22
aI23
aI23
aI23
aI23
aI23
aI23
aI23
aI24
asa(dp13
g6
(lp14
I0
aI10
aI20
aI30
aI40
aI50
aI60
aI70
aI80
aI90
aI100
aI110
aI120
aI130
aI140
aI150
aI160
aI170
aI180
aI190
aI200
aI210
asg8
(lp15
I0
aI3
aI4
aI5
aI9
aI11
aI13
aI15
aI16
aI19
aI19
aI20
aI20
aI20
aI22
aI22
aI22
aI22
aI23
aI23
aI23
aI24
asa(dp16
g6
(lp17
I0
aI10
aI20
aI30
aI40
aI50
aI60
aI70
aI80
aI90
aI100
aI110
aI120
aI130
aI140
aI150
aI160
aI170
aI180
aI190
aI200
aI210
aI220
asg8
(lp18
I0
aI4
aI5
aI5
aI7
aI11
aI13
aI15
aI16
aI19
aI20
aI20
aI21
aI21
aI21
aI23
aI23
aI23
aI23
aI23
aI23
aI23
aI24
asa(dp19
g6
(lp20
I0
aI10
aI20
aI30
aI40
aI50
aI60
aI70
aI80
aI90
aI100
aI110
aI120
aI130
aI140
aI150
aI160
aI170
aI180
aI190
asg8
(lp21
I0
aI3
aI4
aI6
aI8
aI11
aI11
aI11
aI12
aI15
aI16
aI18
aI20
aI21
aI21
aI21
aI21
aI21
aI22
aI24
asa(dp22
g6
(lp23
I0
aI10
aI20
aI30
aI40
aI50
aI60
aI70
aI80
aI90
aI100
aI110
aI120
aI130
aI140
aI150
aI160
aI170
aI180
aI190
aI200
aI210
aI220
aI230
asg8
(lp24
I0
aI3
aI4
aI4
aI7
aI8
aI10
aI12
aI13
aI16
aI17
aI18
aI19
aI21
aI21
aI21
aI22
aI23
aI23
aI23
aI23
aI23
aI23
aI24
asa(dp25
g6
(lp26
I0
aI10
aI20
aI30
aI40
aI50
aI60
aI70
aI80
aI90
aI100
aI110
aI120
aI130
aI140
aI150
aI160
aI170
aI180
asg8
(lp27
I0
aI3
aI5
aI5
aI7
aI10
aI12
aI13
aI18
aI21
aI21
aI21
aI21
aI22
aI23
aI23
aI23
aI23
aI24
asa(dp28
g6
(lp29
I0
aI10
aI20
aI30
aI40
aI50
aI60
aI70
aI80
aI90
aI100
aI110
aI120
aI130
aI140
aI150
aI160
aI170
aI180
aI190
aI200
aI210
aI220
asg8
(lp30
I0
aI4
aI5
aI7
aI8
aI11
aI13
aI14
aI17
aI19
aI20
aI21
aI21
aI21
aI21
aI21
aI23
aI23
aI23
aI23
aI23
aI23
aI24
asa(dp31
g6
(lp32
I0
aI10
aI20
aI30
aI40
aI50
aI60
aI70
aI80
aI90
aI100
aI110
aI120
aI130
aI140
aI150
aI160
aI170
aI180
aI190
asg8
(lp33
I0
aI3
aI3
aI5
aI7
aI11
aI12
aI13
aI15
aI18
aI18
aI18
aI21
aI22
aI22
aI22
aI22
aI22
aI22
aI24
asa(dp34
g6
(lp35
I0
aI10
aI20
aI30
aI40
aI50
aI60
aI70
aI80
aI90
aI100
aI110
aI120
aI130
aI140
aI150
aI160
aI170
aI180
aI190
aI200
aI210
aI220
aI230
asg8
(lp36
I0
aI3
aI3
aI3
aI5
aI9
aI10
aI12
aI13
aI15
aI18
aI20
aI21
aI21
aI21
aI21
aI21
aI21
aI22
aI23
aI23
aI23
aI23
aI24
asa(dp37
g6
(lp38
I0
aI10
aI20
aI30
aI40
aI50
aI60
aI70
aI80
aI90
aI100
aI110
aI120
aI130
aI140
aI150
aI160
aI170
aI180
aI190
aI200
asg8
(lp39
I0
aI3
aI4
aI6
aI9
aI11
aI11
aI12
aI13
aI17
aI19
aI20
aI20
aI20
aI21
aI22
aI22
aI23
aI23
aI23
aI24
asa(dp40
g6
(lp41
I0
aI10
aI20
aI30
aI40
aI50
aI60
aI70
aI80
aI90
aI100
aI110
aI120
aI130
aI140
aI150
aI160
aI170
aI180
aI190
aI200
aI210
aI220
aI230
aI240
aI250
asg8
(lp42
I0
aI3
aI4
aI5
aI6
aI9
aI10
aI10
aI13
aI15
aI16
aI19
aI20
aI21
aI21
aI21
aI22
aI22
aI22
aI22
aI22
aI22
aI22
aI22
aI23
aI24
asa(dp43
g6
(lp44
I0
aI10
aI20
aI30
aI40
aI50
aI60
aI70
aI80
aI90
aI100
aI110
aI120
aI130
aI140
aI150
aI160
aI170
aI180
aI190
aI200
aI210
aI220
aI230
aI240
asg8
(lp45
I0
aI3
aI4
aI5
aI9
aI10
aI10
aI11
aI12
aI13
aI16
aI20
aI21
aI21
aI21
aI21
aI22
aI22
aI23
aI23
aI23
aI23
aI23
aI23
aI24
asa(dp46
g6
(lp47
I0
aI10
aI20
aI30
aI40
aI50
aI60
aI70
aI80
aI90
aI100
aI110
aI120
aI130
aI140
aI150
aI160
aI170
aI180
aI190
aI200
aI210
aI220
aI230
aI240
aI250
asg8
(lp48
I0
aI3
aI4
aI7
aI9
aI11
aI13
aI15
aI16
aI18
aI19
aI20
aI20
aI21
aI21
aI22
aI23
aI23
aI23
aI23
aI23
aI23
aI23
aI23
aI23
aI24
asa(dp49
g6
(lp50
I0
aI10
aI20
aI30
aI40
aI50
aI60
aI70
aI80
aI90
aI100
aI110
aI120
aI130
aI140
aI150
aI160
aI170
aI180
aI190
aI200
aI210
asg8
(lp51
I0
aI4
aI5
aI5
aI8
aI10
aI11
aI11
aI13
aI14
aI18
aI20
aI20
aI20
aI20
aI21
aI22
aI22
aI22
aI23
aI23
aI24
asa(dp52
g6
(lp53
I0
aI10
aI20
aI30
aI40
aI50
aI60
aI70
aI80
aI90
aI100
aI110
aI120
aI130
aI140
aI150
aI160
aI170
aI180
aI190
aI200
aI210
aI220
asg8
(lp54
I0
aI3
aI4
aI4
aI5
aI9
aI10
aI12
aI13
aI15
aI16
aI19
aI21
aI21
aI21
aI21
aI21
aI21
aI22
aI22
aI23
aI23
aI24
asa(dp55
g6
(lp56
I0
aI10
aI20
aI30
aI40
aI50
aI60
aI70
aI80
aI90
aI100
aI110
aI120
aI130
aI140
aI150
aI160
aI170
aI180
aI190
aI200
aI210
aI220
aI230
aI240
aI250
asg8
(lp57
I0
aI3
aI3
aI5
aI6
aI9
aI10
aI10
aI13
aI16
aI17
aI19
aI21
aI21
aI21
aI21
aI21
aI21
aI21
aI21
aI22
aI22
aI22
aI23
aI23
aI24
asa(dp58
g6
(lp59
I0
aI10
aI20
aI30
aI40
aI50
aI60
aI70
aI80
aI90
aI100
aI110
aI120
aI130
aI140
aI150
aI160
aI170
aI180
aI190
aI200
aI210
asg8
(lp60
I0
aI3
aI3
aI4
aI7
aI10
aI12
aI13
aI17
aI19
aI20
aI20
aI21
aI21
aI21
aI22
aI22
aI22
aI23
aI23
aI23
aI24
asa(dp61
g6
(lp62
I0
aI10
aI20
aI30
aI40
aI50
aI60
aI70
aI80
aI90
aI100
aI110
aI120
aI130
aI140
aI150
aI160
aI170
aI180
aI190
asg8
(lp63
I0
aI2
aI4
aI5
aI8
aI10
aI12
aI13
aI17
aI17
aI20
aI20
aI20
aI21
aI21
aI21
aI22
aI23
aI23
aI24
asa(dp64
g6
(lp65
I0
aI10
aI20
aI30
aI40
aI50
aI60
aI70
aI80
aI90
aI100
aI110
aI120
aI130
aI140
aI150
aI160
aI170
aI180
aI190
aI200
aI210
aI220
aI230
aI240
aI250
aI260
aI270
asg8
(lp66
I0
aI3
aI5
aI7
aI8
aI11
aI13
aI15
aI16
aI19
aI20
aI21
aI21
aI21
aI21
aI21
aI21
aI22
aI22
aI23
aI23
aI23
aI23
aI23
aI23
aI23
aI23
aI24
asa(dp67
g6
(lp68
I0
aI10
aI20
aI30
aI40
aI50
aI60
aI70
aI80
aI90
aI100
aI110
aI120
aI130
aI140
aI150
aI160
aI170
aI180
aI190
aI200
aI210
aI220
aI230
asg8
(lp69
I0
aI2
aI4
aI5
aI9
aI10
aI11
aI12
aI15
aI16
aI19
aI20
aI20
aI20
aI21
aI22
aI22
aI22
aI23
aI23
aI23
aI23
aI23
aI24
asa(dp70
g6
(lp71
I0
aI10
aI20
aI30
aI40
aI50
aI60
aI70
aI80
aI90
aI100
aI110
aI120
aI130
aI140
aI150
aI160
aI170
aI180
aI190
aI200
aI210
asg8
(lp72
I0
aI4
aI5
aI6
aI8
aI11
aI13
aI14
aI16
aI18
aI18
aI20
aI21
aI21
aI22
aI22
aI22
aI22
aI23
aI23
aI23
aI24
asa(dp73
g6
(lp74
I0
aI10
aI20
aI30
aI40
aI50
aI60
aI70
aI80
aI90
aI100
aI110
aI120
aI130
aI140
aI150
aI160
aI170
aI180
aI190
aI200
aI210
aI220
aI230
asg8
(lp75
I0
aI3
aI4
aI6
aI9
aI10
aI11
aI12
aI13
aI15
aI19
aI20
aI20
aI20
aI20
aI21
aI22
aI22
aI22
aI22
aI23
aI23
aI23
aI25
asa(dp76
g6
(lp77
I0
aI10
aI20
aI30
aI40
aI50
aI60
aI70
aI80
aI90
aI100
aI110
aI120
aI130
aI140
aI150
aI160
aI170
aI180
aI190
aI200
aI210
aI220
aI230
asg8
(lp78
I0
aI4
aI4
aI6
aI6
aI9
aI11
aI13
aI13
aI16
aI17
aI19
aI20
aI20
aI21
aI21
aI22
aI22
aI22
aI22
aI22
aI23
aI23
aI24
asa(dp79
g6
(lp80
I0
aI10
aI20
aI30
aI40
aI50
aI60
aI70
aI80
aI90
aI100
aI110
aI120
aI130
aI140
aI150
aI160
aI170
aI180
aI190
aI200
aI210
asg8
(lp81
I0
aI3
aI4
aI6
aI7
aI10
aI11
aI12
aI13
aI17
aI19
aI20
aI20
aI20
aI20
aI21
aI21
aI22
aI22
aI23
aI23
aI24
asa(dp82
g6
(lp83
I0
aI10
aI20
aI30
aI40
aI50
aI60
aI70
aI80
aI90
aI100
aI110
aI120
aI130
aI140
aI150
aI160
aI170
aI180
aI190
aI200
aI210
aI220
asg8
(lp84
I0
aI3
aI3
aI4
aI8
aI9
aI11
aI13
aI16
aI17
aI19
aI20
aI20
aI21
aI21
aI22
aI22
aI22
aI22
aI23
aI23
aI23
aI24
asa(dp85
g6
(lp86
I0
aI10
aI20
aI30
aI40
aI50
aI60
aI70
aI80
aI90
aI100
aI110
aI120
aI130
aI140
aI150
aI160
aI170
aI180
aI190
aI200
asg8
(lp87
I0
aI3
aI4
aI5
aI9
aI11
aI12
aI13
aI15
aI17
aI20
aI20
aI20
aI20
aI22
aI22
aI23
aI23
aI23
aI23
aI24
asa(dp88
g6
(lp89
I0
aI10
aI20
aI30
aI40
aI50
aI60
aI70
aI80
aI90
aI100
aI110
aI120
aI130
aI140
aI150
aI160
aI170
aI180
aI190
aI200
aI210
aI220
asg8
(lp90
I0
aI3
aI4
aI5
aI9
aI11
aI13
aI14
aI17
aI18
aI19
aI21
aI22
aI22
aI22
aI22
aI22
aI22
aI23
aI23
aI23
aI23
aI24
asa(dp91
g6
(lp92
I0
aI10
aI20
aI30
aI40
aI50
aI60
aI70
aI80
aI90
aI100
aI110
aI120
aI130
aI140
aI150
aI160
aI170
aI180
aI190
aI200
asg8
(lp93
I0
aI3
aI4
aI7
aI9
aI10
aI11
aI12
aI13
aI17
aI20
aI20
aI20
aI21
aI21
aI21
aI21
aI21
aI22
aI23
aI24
asa(dp94
g6
(lp95
I0
aI10
aI20
aI30
aI40
aI50
aI60
aI70
aI80
aI90
aI100
aI110
aI120
aI130
aI140
aI150
aI160
aI170
aI180
aI190
aI200
aI210
aI220
aI230
aI240
aI250
asg8
(lp96
I0
aI3
aI3
aI4
aI6
aI8
aI11
aI13
aI15
aI18
aI20
aI21
aI21
aI21
aI22
aI22
aI22
aI22
aI22
aI22
aI23
aI23
aI23
aI23
aI23
aI24
asasS'UPDATE'
p97
(lp98
(dp99
g6
(lp100
I0
aI10
aI20
aI30
aI40
aI50
aI60
aI70
aI80
aI90
aI100
aI110
aI120
aI130
aI140
aI150
aI160
aI170
aI180
aI190
aI200
aI210
asg8
(lp101
I0
aI4
aI4
aI6
aI8
aI11
aI13
aI16
aI17
aI18
aI21
aI21
aI21
aI21
aI21
aI21
aI21
aI22
aI22
aI22
aI23
aI24
asa(dp102
g6
(lp103
I0
aI10
aI20
aI30
aI40
aI50
aI60
aI70
aI80
aI90
aI100
aI110
aI120
aI130
aI140
aI150
aI160
aI170
aI180
asg8
(lp104
I0
aI4
aI5
aI8
aI10
aI12
aI15
aI16
aI18
aI18
aI18
aI20
aI20
aI20
aI21
aI23
aI23
aI23
aI24
asa(dp105
g6
(lp106
I0
aI10
aI20
aI30
aI40
aI50
aI60
aI70
aI80
aI90
aI100
aI110
aI120
aI130
aI140
aI150
aI160
aI170
aI180
asg8
(lp107
I0
aI4
aI4
aI7
aI9
aI11
aI13
aI16
aI17
aI19
aI20
aI20
aI21
aI21
aI22
aI22
aI22
aI22
aI24
asa(dp108
g6
(lp109
I0
aI10
aI20
aI30
aI40
aI50
aI60
aI70
aI80
aI90
aI100
aI110
aI120
aI130
aI140
aI150
aI160
aI170
aI180
aI190
aI200
asg8
(lp110
I0
aI4
aI5
aI9
aI11
aI12
aI14
aI17
aI19
aI20
aI20
aI20
aI21
aI21
aI21
aI22
aI22
aI22
aI22
aI23
aI24
asa(dp111
g6
(lp112
I0
aI10
aI20
aI30
aI40
aI50
aI60
aI70
aI80
aI90
aI100
aI110
aI120
aI130
aI140
aI150
aI160
asg8
(lp113
I0
aI4
aI6
aI7
aI11
aI12
aI14
aI16
aI18
aI18
aI20
aI21
aI21
aI22
aI23
aI23
aI24
asa(dp114
g6
(lp115
I0
aI10
aI20
aI30
aI40
aI50
aI60
aI70
aI80
aI90
aI100
aI110
aI120
aI130
aI140
aI150
aI160
aI170
aI180
aI190
aI200
aI210
aI220
asg8
(lp116
I0
aI4
aI5
aI9
aI11
aI12
aI14
aI16
aI18
aI19
aI21
aI22
aI22
aI22
aI22
aI22
aI22
aI22
aI22
aI23
aI23
aI23
aI25
asa(dp117
g6
(lp118
I0
aI10
aI20
aI30
aI40
aI50
aI60
aI70
aI80
aI90
aI100
aI110
aI120
aI130
aI140
aI150
aI160
aI170
aI180
aI190
aI200
asg8
(lp119
I0
aI4
aI4
aI6
aI8
aI11
aI13
aI17
aI19
aI19
aI20
aI21
aI21
aI22
aI22
aI23
aI23
aI23
aI23
aI23
aI24
asa(dp120
g6
(lp121
I0
aI10
aI20
aI30
aI40
aI50
aI60
aI70
aI80
aI90
aI100
aI110
aI120
aI130
aI140
aI150
aI160
aI170
aI180
aI190
aI200
aI210
asg8
(lp122
I0
aI4
aI4
aI6
aI8
aI11
aI13
aI16
aI17
aI19
aI21
aI21
aI21
aI21
aI21
aI22
aI22
aI23
aI23
aI23
aI23
aI24
asa(dp123
g6
(lp124
I0
aI10
aI20
aI30
aI40
aI50
aI60
aI70
aI80
aI90
aI100
aI110
aI120
aI130
aI140
aI150
aI160
aI170
aI180
asg8
(lp125
I0
aI4
aI4
aI7
aI9
aI11
aI13
aI15
aI15
aI18
aI20
aI20
aI20
aI20
aI22
aI22
aI23
aI23
aI25
asa(dp126
g6
(lp127
I0
aI10
aI20
aI30
aI40
aI50
aI60
aI70
aI80
aI90
aI100
aI110
aI120
aI130
aI140
aI150
aI160
aI170
aI180
aI190
aI200
aI210
asg8
(lp128
I0
aI4
aI4
aI6
aI8
aI11
aI12
aI15
aI17
aI19
aI20
aI20
aI22
aI23
aI23
aI23
aI23
aI23
aI23
aI23
aI23
aI24
asa(dp129
g6
(lp130
I0
aI10
aI20
aI30
aI40
aI50
aI60
aI70
aI80
aI90
aI100
aI110
aI120
aI130
aI140
aI150
aI160
aI170
asg8
(lp131
I0
aI4
aI5
aI8
aI10
aI12
aI15
aI17
aI19
aI19
aI20
aI20
aI20
aI21
aI22
aI23
aI23
aI24
asa(dp132
g6
(lp133
I0
aI10
aI20
aI30
aI40
aI50
aI60
aI70
aI80
aI90
aI100
aI110
aI120
aI130
aI140
aI150
aI160
aI170
aI180
asg8
(lp134
I0
aI4
aI6
aI7
aI11
aI12
aI16
aI18
aI20
aI20
aI20
aI21
aI21
aI22
aI23
aI23
aI23
aI23
aI24
asa(dp135
g6
(lp136
I0
aI10
aI20
aI30
aI40
aI50
aI60
aI70
aI80
aI90
aI100
aI110
aI120
aI130
aI140
aI150
aI160
aI170
aI180
asg8
(lp137
I0
aI4
aI5
aI9
aI11
aI12
aI14
aI16
aI18
aI20
aI20
aI20
aI21
aI21
aI21
aI22
aI22
aI23
aI24
asa(dp138
g6
(lp139
I0
aI10
aI20
aI30
aI40
aI50
aI60
aI70
aI80
aI90
aI100
aI110
aI120
aI130
aI140
aI150
aI160
aI170
asg8
(lp140
I0
aI4
aI5
aI8
aI10
aI12
aI13
aI15
aI18
aI20
aI21
aI21
aI21
aI22
aI22
aI22
aI23
aI24
asa(dp141
g6
(lp142
I0
aI10
aI20
aI30
aI40
aI50
aI60
aI70
aI80
aI90
aI100
aI110
aI120
aI130
aI140
aI150
aI160
aI170
aI180
aI190
asg8
(lp143
I0
aI4
aI5
aI8
aI11
aI13
aI14
aI16
aI17
aI19
aI21
aI21
aI21
aI23
aI23
aI23
aI23
aI23
aI23
aI24
asa(dp144
g6
(lp145
I0
aI10
aI20
aI30
aI40
aI50
aI60
aI70
aI80
aI90
aI100
aI110
aI120
aI130
aI140
aI150
aI160
aI170
aI180
aI190
aI200
aI210
aI220
aI230
asg8
(lp146
I0
aI4
aI5
aI8
aI11
aI13
aI15
aI19
aI20
aI20
aI20
aI21
aI21
aI22
aI22
aI22
aI22
aI22
aI22
aI23
aI23
aI23
aI23
aI24
asa(dp147
g6
(lp148
I0
aI10
aI20
aI30
aI40
aI50
aI60
aI70
aI80
aI90
aI100
aI110
aI120
aI130
aI140
aI150
aI160
aI170
aI180
aI190
aI200
aI210
aI220
aI230
aI240
asg8
(lp149
I0
aI4
aI5
aI10
aI11
aI12
aI14
aI16
aI19
aI20
aI21
aI21
aI21
aI21
aI21
aI21
aI21
aI22
aI22
aI22
aI23
aI23
aI23
aI23
aI25
asa(dp150
g6
(lp151
I0
aI10
aI20
aI30
aI40
aI50
aI60
aI70
aI80
aI90
aI100
aI110
aI120
aI130
aI140
aI150
aI160
aI170
aI180
asg8
(lp152
I0
aI4
aI5
aI9
aI10
aI11
aI13
aI17
aI19
aI20
aI21
aI21
aI21
aI22
aI22
aI22
aI23
aI23
aI24
asa(dp153
g6
(lp154
I0
aI10
aI20
aI30
aI40
aI50
aI60
aI70
aI80
aI90
aI100
aI110
aI120
aI130
aI140
aI150
aI160
aI170
aI180
aI190
asg8
(lp155
I0
aI4
aI5
aI10
aI11
aI12
aI14
aI17
aI19
aI19
aI20
aI20
aI22
aI23
aI23
aI23
aI23
aI23
aI23
aI24
asa(dp156
g6
(lp157
I0
aI10
aI20
aI30
aI40
aI50
aI60
aI70
aI80
aI90
aI100
aI110
aI120
aI130
aI140
aI150
aI160
aI170
aI180
asg8
(lp158
I0
aI4
aI5
aI9
aI11
aI12
aI15
aI18
aI19
aI20
aI21
aI21
aI21
aI22
aI23
aI23
aI23
aI23
aI24
asa(dp159
g6
(lp160
I0
aI10
aI20
aI30
aI40
aI50
aI60
aI70
aI80
aI90
aI100
aI110
aI120
aI130
aI140
aI150
aI160
aI170
aI180
aI190
aI200
aI210
asg8
(lp161
I0
aI4
aI5
aI10
aI11
aI12
aI15
aI17
aI18
aI20
aI20
aI20
aI21
aI21
aI22
aI22
aI22
aI23
aI23
aI23
aI23
aI24
asa(dp162
g6
(lp163
I0
aI10
aI20
aI30
aI40
aI50
aI60
aI70
aI80
aI90
aI100
aI110
aI120
aI130
aI140
aI150
aI160
aI170
aI180
aI190
aI200
aI210
aI220
asg8
(lp164
I0
aI4
aI5
aI9
aI10
aI11
aI13
aI15
aI17
aI19
aI20
aI21
aI21
aI22
aI22
aI22
aI22
aI23
aI23
aI23
aI23
aI23
aI24
asa(dp165
g6
(lp166
I0
aI10
aI20
aI30
aI40
aI50
aI60
aI70
aI80
aI90
aI100
aI110
aI120
aI130
aI140
aI150
aI160
aI170
asg8
(lp167
I0
aI4
aI6
aI7
aI11
aI12
aI15
aI17
aI18
aI20
aI20
aI21
aI21
aI22
aI22
aI23
aI23
aI24
asa(dp168
g6
(lp169
I0
aI10
aI20
aI30
aI40
aI50
aI60
aI70
aI80
aI90
aI100
aI110
aI120
aI130
aI140
aI150
aI160
aI170
aI180
aI190
aI200
aI210
aI220
asg8
(lp170
I0
aI4
aI5
aI10
aI11
aI12
aI14
aI16
aI19
aI20
aI20
aI21
aI22
aI22
aI22
aI22
aI22
aI22
aI22
aI23
aI23
aI23
aI24
asa(dp171
g6
(lp172
I0
aI10
aI20
aI30
aI40
aI50
aI60
aI70
aI80
aI90
aI100
aI110
aI120
aI130
aI140
aI150
aI160
aI170
aI180
aI190
aI200
aI210
aI220
aI230
aI240
aI250
asg8
(lp173
I0
aI4
aI4
aI7
aI9
aI11
aI13
aI15
aI16
aI16
aI16
aI19
aI21
aI21
aI22
aI22
aI22
aI22
aI22
aI22
aI22
aI23
aI23
aI23
aI23
aI25
asa(dp174
g6
(lp175
I0
aI10
aI20
aI30
aI40
aI50
aI60
aI70
aI80
aI90
aI100
aI110
aI120
aI130
aI140
aI150
aI160
aI170
asg8
(lp176
I0
aI4
aI6
aI7
aI11
aI12
aI16
aI17
aI17
aI19
aI20
aI20
aI22
aI23
aI23
aI23
aI23
aI24
asa(dp177
g6
(lp178
I0
aI10
aI20
aI30
aI40
aI50
aI60
aI70
aI80
aI90
aI100
aI110
aI120
aI130
aI140
aI150
aI160
aI170
aI180
aI190
aI200
aI210
aI220
aI230
aI240
asg8
(lp179
I0
aI4
aI5
aI9
aI11
aI12
aI15
aI17
aI19
aI19
aI19
aI19
aI20
aI21
aI23
aI23
aI23
aI23
aI23
aI23
aI23
aI23
aI23
aI23
aI24
asa(dp180
g6
(lp181
I0
aI10
aI20
aI30
aI40
aI50
aI60
aI70
aI80
aI90
aI100
aI110
aI120
aI130
aI140
aI150
aI160
aI170
aI180
aI190
aI200
asg8
(lp182
I0
aI4
aI5
aI9
aI11
aI12
aI13
aI16
aI18
aI19
aI20
aI20
aI21
aI22
aI22
aI23
aI23
aI23
aI23
aI23
aI24
asa(dp183
g6
(lp184
I0
aI10
aI20
aI30
aI40
aI50
aI60
aI70
aI80
aI90
aI100
aI110
aI120
aI130
aI140
aI150
aI160
aI170
asg8
(lp185
I0
aI4
aI5
aI9
aI11
aI12
aI16
aI17
aI17
aI17
aI18
aI20
aI22
aI22
aI23
aI23
aI23
aI24
asa(dp186
g6
(lp187
I0
aI10
aI20
aI30
aI40
aI50
aI60
aI70
aI80
aI90
aI100
aI110
aI120
aI130
aI140
aI150
aI160
aI170
aI180
aI190
aI200
aI210
aI220
aI230
aI240
asg8
(lp188
I0
aI4
aI5
aI8
aI12
aI13
aI15
aI16
aI18
aI20
aI20
aI22
aI22
aI22
aI23
aI23
aI23
aI23
aI23
aI23
aI23
aI23
aI23
aI23
aI24
asas.