(lp0
(lp1
I1784
aI1785
aI1787
aI1815
aI3598
aI5369
aI5399
aI5404
aI8887
aa(lp2
I1784
aI1787
aI1815
aI5369
aI5371
aI5399
aI5404
aI8884
aI8887
aa(lp3
I1784
aI1785
aI1787
aI1815
aI5369
aI5371
aI5399
aI5404
aI7133
aI8887
aa(lp4
I1784
aI1785
aI1787
aI1790
aI5364
aI5369
aI5371
aI5404
aI7145
aI8884
aI8887
aa(lp5
I1784
aI1785
aI1787
aI1790
aI1815
aI3598
aI5369
aI5371
aI5399
aI5404
aI8887
aa(lp6
I1784
aI1785
aI1787
aI1790
aI1815
aI5369
aI5371
aI5399
aI5404
aI8884
aI8887
aa(lp7
I1784
aI1785
aI1787
aI1790
aI1815
aI5369
aI5371
aI5399
aI5404
aI7143
aI8887
aa(lp8
I1782
aI1784
aI1785
aI1787
aI1815
aI3598
aI5369
aI5371
aI5399
aI5404
aI8887
aa(lp9
I1784
aI1785
aI1787
aI3598
aI5369
aI5371
aI5399
aI5404
aI8887
aa(lp10
I1784
aI1785
aI1787
aI3598
aI5369
aI5371
aI5376
aI5399
aI5404
aI8887
aa(lp11
I1784
aI1787
aI1815
aI3598
aI5369
aI5371
aI5399
aI5404
aI7145
aI8887
aa(lp12
I1784
aI1787
aI1790
aI1815
aI5364
aI5369
aI5371
aI5399
aI5404
aI8884
aI8887
aa(lp13
I1784
aI1785
aI1787
aI1790
aI3598
aI5369
aI5399
aI5404
aI8887
aa(lp14
I1784
aI1787
aI1792
aI1815
aI3598
aI5369
aI5371
aI5399
aI5404
aI7144
aI8887
aa(lp15
I1784
aI1785
aI1787
aI1790
aI1815
aI3598
aI5369
aI5371
aI5399
aI5404
aI8887
aa(lp16
I1784
aI1787
aI1815
aI3598
aI5364
aI5369
aI5399
aI5404
aI8884
aI8887
aa(lp17
I1784
aI1785
aI1787
aI1815
aI5364
aI5369
aI5371
aI5399
aI5404
aI7143
aI8887
aa(lp18
I1782
aI1784
aI1787
aI1815
aI3598
aI5369
aI5371
aI5399
aI5404
aI8884
aI8887
aa(lp19
I1784
aI1785
aI1787
aI1815
aI3598
aI5369
aI5371
aI5399
aI5404
aI8884
aI8887
aa(lp20
I1782
aI1784
aI1785
aI1787
aI3598
aI5369
aI5371
aI5399
aI5404
aI7145
aI8887
aa(lp21
I1782
aI1784
aI1792
aI1815
aI3598
aI5369
aI5371
aI5399
aI5404
aI7133
aI8887
aa(lp22
I1782
aI1784
aI1785
aI1787
aI3598
aI5369
aI5371
aI5399
aI5404
aI8887
aa(lp23
I1782
aI1784
aI1785
aI1787
aI3598
aI5369
aI5371
aI5399
aI5404
aI8887
aa(lp24
I1784
aI1785
aI1787
aI1790
aI1815
aI5369
aI5371
aI5399
aI5404
aI8887
aa(lp25
I1784
aI1785
aI1787
aI1790
aI3598
aI5364
aI5369
aI5399
aI5404
aI7145
aI8887
aa(lp26
I1784
aI1785
aI1787
aI1815
aI5369
aI5371
aI5399
aI5404
aI7133
aI7143
aI8887
aa(lp27
I1784
aI1787
aI1792
aI1815
aI5369
aI5371
aI5399
aI5404
aI8884
aI8887
aa(lp28
I1784
aI1785
aI1787
aI1815
aI3598
aI3599
aI5369
aI5371
aI5399
aI8884
aI8887
aa(lp29
I1784
aI1787
aI1815
aI3598
aI3599
aI5369
aI5371
aI5399
aI5404
aI8884
aI8887
aa(lp30
I1784
aI1785
aI1787
aI1790
aI1815
aI5369
aI5371
aI5399
aI5404
aI7145
aI8887
aa.