(lp0
(lp1
I462
aI1352
aI1644
aI2595
aI2596
aI5425
aI6207
aa(lp2
I462
aI1352
aI1644
aI2595
aI2596
aI4703
aI6207
aa(lp3
I462
aI1352
aI1644
aI2596
aI5435
aI6207
aI6999
aa(lp4
I462
aI1352
aI1644
aI2595
aI2596
aI5435
aI6207
aa(lp5
I462
aI1352
aI1644
aI2595
aI2596
aI6207
aI6999
aa(lp6
I462
aI1352
aI1644
aI2595
aI2596
aI6207
aa(lp7
I462
aI1352
aI1644
aI2063
aI2595
aI2596
aa(lp8
I462
aI1352
aI1644
aI2595
aI2596
aI5435
aI6207
aa(lp9
I462
aI1352
aI1644
aI2596
aI5435
aI6207
aI6999
aa(lp10
I462
aI1352
aI1644
aI2596
aI5435
aI6207
aI6999
aa(lp11
I462
aI1352
aI1644
aI2595
aI2596
aI6207
aI6999
aa(lp12
I462
aI1352
aI1644
aI2596
aI6207
aI6999
aa(lp13
I462
aI1352
aI1644
aI2596
aI5435
aI6207
aI6999
aa(lp14
I462
aI1352
aI1644
aI2596
aI5435
aI6207
aI6999
aa(lp15
I462
aI1352
aI2063
aI2595
aI2596
aI5435
aI6999
aa(lp16
I462
aI1352
aI1644
aI2596
aI5435
aI6207
aI6999
aa(lp17
I462
aI1352
aI1644
aI2596
aI5435
aI6207
aI6999
aa(lp18
I462
aI1352
aI1644
aI2595
aI4702
aI6207
aa(lp19
I462
aI1001
aI1644
aI1820
aI2596
aI6207
aI6999
aa(lp20
I462
aI1352
aI1644
aI2596
aI5435
aI6207
aI6999
aa(lp21
I462
aI1352
aI1644
aI2596
aI5435
aI6207
aI6999
aa(lp22
I462
aI1352
aI2063
aI2596
aI5435
aI6999
aa(lp23
I462
aI1352
aI1644
aI2595
aI2596
aI4703
aI6207
aa(lp24
I462
aI1001
aI1352
aI1644
aI2595
aI2596
aI6207
aa(lp25
I462
aI1352
aI1644
aI2595
aI2596
aI5435
aI6207
aa(lp26
I462
aI1352
aI1644
aI2596
aI5435
aI6207
aI6999
aa(lp27
I462
aI1352
aI1644
aI2596
aI5435
aI6207
aa(lp28
I462
aI1352
aI1644
aI2595
aI2596
aI6207
aa(lp29
I462
aI1352
aI1644
aI2063
aI2596
aI5435
aI6999
aa(lp30
I462
aI1352
aI1644
aI2596
aI5435
aI6207
aI6999
aa.