(dp0
S'POS_2'
p1
(lp2
sS'UPDATE_2'
p3
(lp4
(dp5
S'x'
p6
(lp7
I0
aI10
aI20
aI30
aI40
aI50
aI60
aI70
aI80
aI90
aI100
aI110
aI120
aI130
aI140
aI150
aI160
aI170
aI180
aI190
aI200
aI210
aI220
aI230
aI240
aI250
aI260
aI270
aI280
aI290
aI300
aI310
aI320
aI330
aI340
aI350
aI360
aI370
aI380
aI390
aI400
aI410
aI420
aI430
aI440
aI450
aI460
aI470
aI480
aI490
aI500
aI510
aI520
aI530
aI540
aI550
aI560
aI570
aI580
aI590
aI600
aI610
aI620
aI630
aI640
aI650
aI660
aI670
aI680
aI690
aI700
aI710
aI720
aI730
aI740
aI750
aI760
aI770
aI780
aI790
aI800
aI810
aI820
aI830
aI840
aI850
aI860
aI870
aI880
aI890
aI900
aI910
aI920
aI930
aI940
aI950
aI960
aI970
aI980
aI990
aI1000
aI1010
aI1020
aI1030
aI1040
aI1050
aI1060
aI1070
aI1080
aI1090
aI1100
aI1110
aI1120
aI1130
asS'pos'
p8
(lp9
I0
aI3
aI6
aI7
aI8
aI13
aI17
aI22
aI22
aI25
aI26
aI29
aI30
aI33
aI34
aI35
aI40
aI41
aI42
aI43
aI44
aI45
aI46
aI47
aI49
aI52
aI52
aI52
aI52
aI53
aI54
aI57
aI59
aI59
aI60
aI61
aI63
aI65
aI68
aI68
aI69
aI71
aI72
aI73
aI74
aI76
aI77
aI79
aI80
aI82
aI83
aI83
aI83
aI85
aI86
aI87
aI88
aI91
aI92
aI92
aI93
aI93
aI94
aI95
aI98
aI98
aI99
aI99
aI99
aI100
aI101
aI104
aI104
aI105
aI109
aI109
aI110
aI111
aI113
aI113
aI114
aI115
aI116
aI116
aI117
aI117
aI119
aI119
aI119
aI120
aI122
aI124
aI124
aI124
aI125
aI126
aI126
aI126
aI127
aI127
aI128
aI129
aI129
aI130
aI131
aI131
aI131
aI131
aI133
aI134
aI135
aI136
aI137
aI138
asa(dp10
g6
(lp11
I0
aI10
aI20
aI30
aI40
aI50
aI60
aI70
aI80
aI90
aI100
aI110
aI120
aI130
aI140
aI150
aI160
aI170
aI180
aI190
aI200
aI210
aI220
aI230
aI240
aI250
aI260
aI270
aI280
aI290
aI300
aI310
aI320
aI330
aI340
aI350
aI360
aI370
aI380
aI390
aI400
aI410
aI420
aI430
aI440
aI450
aI460
aI470
aI480
aI490
aI500
aI510
aI520
aI530
aI540
aI550
aI560
aI570
aI580
aI590
aI600
aI610
aI620
aI630
aI640
aI650
aI660
aI670
aI680
aI690
aI700
aI710
aI720
aI730
aI740
aI750
aI760
aI770
aI780
aI790
aI800
aI810
aI820
aI830
aI840
aI850
aI860
aI870
aI880
aI890
aI900
aI910
aI920
aI930
aI940
aI950
aI960
aI970
aI980
aI990
aI1000
aI1010
aI1020
aI1030
aI1040
aI1050
aI1060
aI1070
aI1080
aI1090
aI1100
aI1110
aI1120
aI1130
aI1140
aI1150
aI1160
aI1170
asg8
(lp12
I0
aI4
aI5
aI7
aI10
aI12
aI15
aI20
aI21
aI22
aI25
aI28
aI29
aI31
aI33
aI35
aI39
aI40
aI40
aI40
aI42
aI43
aI44
aI44
aI46
aI47
aI49
aI50
aI51
aI52
aI53
aI55
aI55
aI57
aI58
aI59
aI64
aI67
aI69
aI70
aI71
aI72
aI73
aI73
aI75
aI77
aI78
aI78
aI79
aI79
aI80
aI82
aI84
aI84
aI86
aI89
aI90
aI90
aI92
aI93
aI93
aI95
aI98
aI99
aI99
aI100
aI100
aI101
aI101
aI102
aI103
aI103
aI104
aI107
aI107
aI109
aI110
aI110
aI111
aI112
aI112
aI112
aI114
aI114
aI116
aI119
aI122
aI122
aI122
aI123
aI123
aI124
aI126
aI128
aI128
aI130
aI130
aI131
aI132
aI132
aI133
aI133
aI133
aI133
aI133
aI133
aI133
aI134
aI135
aI135
aI135
aI135
aI136
aI136
aI137
aI137
aI137
aI138
asa(dp13
g6
(lp14
I0
aI10
aI20
aI30
aI40
aI50
aI60
aI70
aI80
aI90
aI100
aI110
aI120
aI130
aI140
aI150
aI160
aI170
aI180
aI190
aI200
aI210
aI220
aI230
aI240
aI250
aI260
aI270
aI280
aI290
aI300
aI310
aI320
aI330
aI340
aI350
aI360
aI370
aI380
aI390
aI400
aI410
aI420
aI430
aI440
aI450
aI460
aI470
aI480
aI490
aI500
aI510
aI520
aI530
aI540
aI550
aI560
aI570
aI580
aI590
aI600
aI610
aI620
aI630
aI640
aI650
aI660
aI670
aI680
aI690
aI700
aI710
aI720
aI730
aI740
aI750
aI760
aI770
aI780
aI790
aI800
aI810
aI820
aI830
aI840
aI850
aI860
aI870
aI880
aI890
aI900
aI910
aI920
aI930
aI940
aI950
aI960
aI970
aI980
aI990
aI1000
aI1010
aI1020
aI1030
aI1040
aI1050
aI1060
aI1070
aI1080
aI1090
aI1100
aI1110
aI1120
aI1130
aI1140
aI1150
aI1160
aI1170
aI1180
asg8
(lp15
I0
aI4
aI7
aI11
aI12
aI12
aI15
aI19
aI21
aI23
aI23
aI25
aI29
aI31
aI34
aI35
aI37
aI38
aI39
aI41
aI42
aI43
aI44
aI47
aI49
aI49
aI53
aI54
aI55
aI56
aI57
aI60
aI60
aI62
aI63
aI64
aI67
aI69
aI69
aI69
aI69
aI70
aI71
aI73
aI75
aI77
aI77
aI78
aI79
aI80
aI81
aI81
aI81
aI83
aI86
aI87
aI89
aI91
aI91
aI92
aI92
aI94
aI95
aI98
aI98
aI99
aI99
aI99
aI99
aI99
aI100
aI101
aI102
aI104
aI104
aI106
aI106
aI107
aI108
aI111
aI112
aI113
aI114
aI116
aI118
aI118
aI119
aI120
aI120
aI121
aI122
aI123
aI124
aI125
aI125
aI126
aI128
aI129
aI130
aI131
aI132
aI132
aI133
aI133
aI133
aI133
aI133
aI133
aI134
aI135
aI135
aI135
aI136
aI136
aI136
aI137
aI137
aI137
aI138
asa(dp16
g6
(lp17
I0
aI10
aI20
aI30
aI40
aI50
aI60
aI70
aI80
aI90
aI100
aI110
aI120
aI130
aI140
aI150
aI160
aI170
aI180
aI190
aI200
aI210
aI220
aI230
aI240
aI250
aI260
aI270
aI280
aI290
aI300
aI310
aI320
aI330
aI340
aI350
aI360
aI370
aI380
aI390
aI400
aI410
aI420
aI430
aI440
aI450
aI460
aI470
aI480
aI490
aI500
aI510
aI520
aI530
aI540
aI550
aI560
aI570
aI580
aI590
aI600
aI610
aI620
aI630
aI640
aI650
aI660
aI670
aI680
aI690
aI700
aI710
aI720
aI730
aI740
aI750
aI760
aI770
aI780
aI790
aI800
aI810
aI820
aI830
aI840
aI850
aI860
aI870
aI880
aI890
aI900
aI910
aI920
aI930
aI940
aI950
aI960
aI970
aI980
aI990
aI1000
aI1010
aI1020
aI1030
aI1040
aI1050
aI1060
aI1070
aI1080
aI1090
aI1100
aI1110
aI1120
aI1130
asg8
(lp18
I0
aI3
aI6
aI9
aI11
aI13
aI16
aI22
aI23
aI26
aI27
aI29
aI30
aI31
aI32
aI33
aI36
aI37
aI40
aI41
aI43
aI44
aI44
aI45
aI46
aI46
aI48
aI50
aI51
aI51
aI53
aI55
aI59
aI60
aI60
aI60
aI61
aI63
aI63
aI66
aI68
aI68
aI69
aI74
aI76
aI77
aI78
aI78
aI79
aI81
aI82
aI84
aI85
aI87
aI88
aI89
aI90
aI90
aI90
aI93
aI93
aI95
aI100
aI101
aI101
aI101
aI103
aI105
aI105
aI105
aI107
aI110
aI110
aI111
aI111
aI111
aI112
aI114
aI114
aI115
aI117
aI119
aI119
aI120
aI120
aI121
aI122
aI122
aI122
aI123
aI123
aI123
aI123
aI124
aI125
aI126
aI126
aI127
aI127
aI127
aI129
aI129
aI131
aI131
aI131
aI131
aI131
aI132
aI133
aI134
aI135
aI136
aI137
aI138
asa(dp19
g6
(lp20
I0
aI10
aI20
aI30
aI40
aI50
aI60
aI70
aI80
aI90
aI100
aI110
aI120
aI130
aI140
aI150
aI160
aI170
aI180
aI190
aI200
aI210
aI220
aI230
aI240
aI250
aI260
aI270
aI280
aI290
aI300
aI310
aI320
aI330
aI340
aI350
aI360
aI370
aI380
aI390
aI400
aI410
aI420
aI430
aI440
aI450
aI460
aI470
aI480
aI490
aI500
aI510
aI520
aI530
aI540
aI550
aI560
aI570
aI580
aI590
aI600
aI610
aI620
aI630
aI640
aI650
aI660
aI670
aI680
aI690
aI700
aI710
aI720
aI730
aI740
aI750
aI760
aI770
aI780
aI790
aI800
aI810
aI820
aI830
aI840
aI850
aI860
aI870
aI880
aI890
aI900
aI910
aI920
aI930
aI940
aI950
aI960
aI970
aI980
aI990
aI1000
aI1010
aI1020
aI1030
aI1040
aI1050
aI1060
aI1070
aI1080
aI1090
aI1100
aI1110
aI1120
aI1130
asg8
(lp21
I0
aI3
aI4
aI5
aI7
aI12
aI16
aI18
aI21
aI23
aI25
aI28
aI30
aI31
aI32
aI33
aI36
aI38
aI38
aI39
aI41
aI43
aI43
aI45
aI46
aI48
aI50
aI51
aI51
aI52
aI54
aI56
aI57
aI59
aI59
aI59
aI62
aI62
aI63
aI64
aI67
aI70
aI72
aI73
aI73
aI75
aI76
aI77
aI77
aI78
aI79
aI81
aI82
aI84
aI84
aI86
aI89
aI90
aI91
aI92
aI92
aI95
aI95
aI95
aI97
aI99
aI101
aI103
aI105
aI106
aI108
aI108
aI108
aI108
aI110
aI111
aI113
aI113
aI114
aI115
aI116
aI117
aI117
aI118
aI119
aI121
aI123
aI124
aI124
aI124
aI124
aI124
aI125
aI126
aI126
aI126
aI126
aI127
aI127
aI128
aI128
aI129
aI129
aI131
aI131
aI131
aI131
aI132
aI133
aI134
aI135
aI136
aI137
aI138
asa(dp22
g6
(lp23
I0
aI10
aI20
aI30
aI40
aI50
aI60
aI70
aI80
aI90
aI100
aI110
aI120
aI130
aI140
aI150
aI160
aI170
aI180
aI190
aI200
aI210
aI220
aI230
aI240
aI250
aI260
aI270
aI280
aI290
aI300
aI310
aI320
aI330
aI340
aI350
aI360
aI370
aI380
aI390
aI400
aI410
aI420
aI430
aI440
aI450
aI460
aI470
aI480
aI490
aI500
aI510
aI520
aI530
aI540
aI550
aI560
aI570
aI580
aI590
aI600
aI610
aI620
aI630
aI640
aI650
aI660
aI670
aI680
aI690
aI700
aI710
aI720
aI730
aI740
aI750
aI760
aI770
aI780
aI790
aI800
aI810
aI820
aI830
aI840
aI850
aI860
aI870
aI880
aI890
aI900
aI910
aI920
aI930
aI940
aI950
aI960
aI970
aI980
aI990
aI1000
aI1010
aI1020
aI1030
aI1040
aI1050
aI1060
aI1070
aI1080
aI1090
aI1100
aI1110
aI1120
aI1130
aI1140
aI1150
asg8
(lp24
I0
aI3
aI5
aI5
aI6
aI8
aI11
aI13
aI17
aI19
aI20
aI23
aI24
aI27
aI29
aI32
aI32
aI33
aI35
aI37
aI39
aI41
aI44
aI44
aI45
aI47
aI49
aI52
aI52
aI54
aI54
aI54
aI54
aI57
aI59
aI59
aI61
aI62
aI63
aI64
aI66
aI68
aI71
aI72
aI73
aI76
aI77
aI78
aI78
aI78
aI80
aI81
aI82
aI84
aI85
aI85
aI88
aI91
aI91
aI92
aI93
aI95
aI97
aI98
aI98
aI98
aI98
aI100
aI102
aI103
aI104
aI107
aI108
aI108
aI109
aI110
aI110
aI111
aI111
aI113
aI115
aI115
aI115
aI115
aI115
aI115
aI115
aI116
aI118
aI120
aI121
aI122
aI123
aI124
aI125
aI126
aI126
aI127
aI128
aI128
aI128
aI128
aI129
aI129
aI129
aI131
aI131
aI131
aI131
aI132
aI133
aI134
aI135
aI136
aI137
aI138
asa(dp25
g6
(lp26
I0
aI10
aI20
aI30
aI40
aI50
aI60
aI70
aI80
aI90
aI100
aI110
aI120
aI130
aI140
aI150
aI160
aI170
aI180
aI190
aI200
aI210
aI220
aI230
aI240
aI250
aI260
aI270
aI280
aI290
aI300
aI310
aI320
aI330
aI340
aI350
aI360
aI370
aI380
aI390
aI400
aI410
aI420
aI430
aI440
aI450
aI460
aI470
aI480
aI490
aI500
aI510
aI520
aI530
aI540
aI550
aI560
aI570
aI580
aI590
aI600
aI610
aI620
aI630
aI640
aI650
aI660
aI670
aI680
aI690
aI700
aI710
aI720
aI730
aI740
aI750
aI760
aI770
aI780
aI790
aI800
aI810
aI820
aI830
aI840
aI850
aI860
aI870
aI880
aI890
aI900
aI910
aI920
aI930
aI940
aI950
aI960
aI970
aI980
aI990
aI1000
aI1010
aI1020
aI1030
aI1040
aI1050
aI1060
aI1070
aI1080
aI1090
aI1100
aI1110
aI1120
aI1130
aI1140
aI1150
asg8
(lp27
I0
aI3
aI7
aI8
aI8
aI9
aI14
aI19
aI19
aI21
aI23
aI26
aI28
aI30
aI33
aI34
aI36
aI39
aI40
aI43
aI43
aI44
aI44
aI46
aI48
aI49
aI50
aI52
aI54
aI55
aI56
aI58
aI59
aI59
aI60
aI60
aI61
aI61
aI62
aI63
aI64
aI69
aI71
aI72
aI74
aI75
aI75
aI76
aI76
aI76
aI76
aI80
aI82
aI82
aI84
aI86
aI90
aI90
aI91
aI91
aI91
aI95
aI95
aI97
aI98
aI99
aI102
aI104
aI105
aI105
aI108
aI108
aI109
aI109
aI111
aI112
aI113
aI113
aI114
aI114
aI114
aI114
aI115
aI115
aI115
aI115
aI115
aI116
aI118
aI120
aI121
aI122
aI123
aI124
aI125
aI126
aI126
aI126
aI127
aI128
aI128
aI128
aI129
aI129
aI129
aI130
aI131
aI131
aI131
aI132
aI133
aI134
aI135
aI136
aI137
aI138
asa(dp28
g6
(lp29
I0
aI10
aI20
aI30
aI40
aI50
aI60
aI70
aI80
aI90
aI100
aI110
aI120
aI130
aI140
aI150
aI160
aI170
aI180
aI190
aI200
aI210
aI220
aI230
aI240
aI250
aI260
aI270
aI280
aI290
aI300
aI310
aI320
aI330
aI340
aI350
aI360
aI370
aI380
aI390
aI400
aI410
aI420
aI430
aI440
aI450
aI460
aI470
aI480
aI490
aI500
aI510
aI520
aI530
aI540
aI550
aI560
aI570
aI580
aI590
aI600
aI610
aI620
aI630
aI640
aI650
aI660
aI670
aI680
aI690
aI700
aI710
aI720
aI730
aI740
aI750
aI760
aI770
aI780
aI790
aI800
aI810
aI820
aI830
aI840
aI850
aI860
aI870
aI880
aI890
aI900
aI910
aI920
aI930
aI940
aI950
aI960
aI970
aI980
aI990
aI1000
aI1010
aI1020
aI1030
aI1040
aI1050
aI1060
aI1070
aI1080
aI1090
aI1100
aI1110
aI1120
aI1130
asg8
(lp30
I0
aI4
aI6
aI8
aI9
aI14
aI18
aI20
aI21
aI24
aI25
aI30
aI32
aI34
aI36
aI37
aI39
aI41
aI41
aI42
aI44
aI45
aI47
aI47
aI47
aI50
aI50
aI50
aI51
aI54
aI57
aI58
aI61
aI61
aI63
aI63
aI63
aI66
aI66
aI67
aI68
aI69
aI70
aI75
aI76
aI77
aI77
aI77
aI78
aI78
aI80
aI80
aI81
aI84
aI86
aI89
aI91
aI91
aI92
aI93
aI96
aI97
aI97
aI97
aI97
aI99
aI101
aI101
aI101
aI101
aI103
aI106
aI107
aI107
aI109
aI109
aI109
aI111
aI112
aI114
aI114
aI116
aI116
aI116
aI116
aI116
aI118
aI119
aI122
aI123
aI124
aI124
aI125
aI125
aI126
aI126
aI126
aI126
aI127
aI127
aI128
aI129
aI129
aI131
aI131
aI131
aI131
aI132
aI133
aI134
aI135
aI136
aI137
aI138
asa(dp31
g6
(lp32
I0
aI10
aI20
aI30
aI40
aI50
aI60
aI70
aI80
aI90
aI100
aI110
aI120
aI130
aI140
aI150
aI160
aI170
aI180
aI190
aI200
aI210
aI220
aI230
aI240
aI250
aI260
aI270
aI280
aI290
aI300
aI310
aI320
aI330
aI340
aI350
aI360
aI370
aI380
aI390
aI400
aI410
aI420
aI430
aI440
aI450
aI460
aI470
aI480
aI490
aI500
aI510
aI520
aI530
aI540
aI550
aI560
aI570
aI580
aI590
aI600
aI610
aI620
aI630
aI640
aI650
aI660
aI670
aI680
aI690
aI700
aI710
aI720
aI730
aI740
aI750
aI760
aI770
aI780
aI790
aI800
aI810
aI820
aI830
aI840
aI850
aI860
aI870
aI880
aI890
aI900
aI910
aI920
aI930
aI940
aI950
aI960
aI970
aI980
aI990
aI1000
aI1010
aI1020
aI1030
aI1040
aI1050
aI1060
aI1070
aI1080
aI1090
aI1100
aI1110
aI1120
aI1130
aI1140
aI1150
asg8
(lp33
I0
aI5
aI7
aI11
aI11
aI16
aI18
aI19
aI21
aI21
aI25
aI29
aI33
aI35
aI39
aI42
aI44
aI46
aI49
aI49
aI54
aI54
aI54
aI56
aI58
aI58
aI59
aI59
aI59
aI59
aI60
aI61
aI64
aI66
aI67
aI68
aI68
aI71
aI72
aI72
aI72
aI72
aI75
aI75
aI76
aI76
aI80
aI80
aI81
aI82
aI82
aI85
aI86
aI86
aI90
aI92
aI93
aI93
aI94
aI96
aI98
aI99
aI101
aI103
aI103
aI103
aI104
aI104
aI104
aI104
aI105
aI105
aI107
aI109
aI109
aI109
aI110
aI112
aI113
aI114
aI114
aI114
aI115
aI115
aI115
aI115
aI115
aI115
aI116
aI118
aI120
aI121
aI122
aI123
aI124
aI125
aI126
aI126
aI127
aI128
aI128
aI128
aI128
aI129
aI129
aI130
aI131
aI131
aI131
aI132
aI133
aI134
aI135
aI136
aI137
aI138
asa(dp34
g6
(lp35
I0
aI10
aI20
aI30
aI40
aI50
aI60
aI70
aI80
aI90
aI100
aI110
aI120
aI130
aI140
aI150
aI160
aI170
aI180
aI190
aI200
aI210
aI220
aI230
aI240
aI250
aI260
aI270
aI280
aI290
aI300
aI310
aI320
aI330
aI340
aI350
aI360
aI370
aI380
aI390
aI400
aI410
aI420
aI430
aI440
aI450
aI460
aI470
aI480
aI490
aI500
aI510
aI520
aI530
aI540
aI550
aI560
aI570
aI580
aI590
aI600
aI610
aI620
aI630
aI640
aI650
aI660
aI670
aI680
aI690
aI700
aI710
aI720
aI730
aI740
aI750
aI760
aI770
aI780
aI790
aI800
aI810
aI820
aI830
aI840
aI850
aI860
aI870
aI880
aI890
aI900
aI910
aI920
aI930
aI940
aI950
aI960
aI970
aI980
aI990
aI1000
aI1010
aI1020
aI1030
aI1040
aI1050
aI1060
aI1070
aI1080
aI1090
aI1100
aI1110
aI1120
aI1130
asg8
(lp36
I0
aI3
aI5
aI8
aI12
aI13
aI15
aI19
aI23
aI26
aI27
aI30
aI32
aI35
aI38
aI40
aI41
aI42
aI44
aI44
aI45
aI47
aI48
aI50
aI50
aI51
aI51
aI52
aI55
aI56
aI57
aI58
aI60
aI62
aI63
aI63
aI65
aI66
aI67
aI70
aI70
aI70
aI71
aI73
aI74
aI75
aI77
aI77
aI77
aI78
aI78
aI81
aI81
aI83
aI85
aI88
aI89
aI93
aI96
aI97
aI97
aI98
aI99
aI100
aI102
aI102
aI105
aI107
aI108
aI109
aI109
aI111
aI111
aI112
aI112
aI112
aI114
aI115
aI115
aI115
aI116
aI117
aI117
aI117
aI117
aI117
aI119
aI121
aI123
aI124
aI124
aI124
aI124
aI124
aI125
aI126
aI127
aI128
aI129
aI129
aI130
aI131
aI131
aI131
aI131
aI131
aI131
aI133
aI134
aI134
aI135
aI136
aI137
aI138
asa(dp37
g6
(lp38
I0
aI10
aI20
aI30
aI40
aI50
aI60
aI70
aI80
aI90
aI100
aI110
aI120
aI130
aI140
aI150
aI160
aI170
aI180
aI190
aI200
aI210
aI220
aI230
aI240
aI250
aI260
aI270
aI280
aI290
aI300
aI310
aI320
aI330
aI340
aI350
aI360
aI370
aI380
aI390
aI400
aI410
aI420
aI430
aI440
aI450
aI460
aI470
aI480
aI490
aI500
aI510
aI520
aI530
aI540
aI550
aI560
aI570
aI580
aI590
aI600
aI610
aI620
aI630
aI640
aI650
aI660
aI670
aI680
aI690
aI700
aI710
aI720
aI730
aI740
aI750
aI760
aI770
aI780
aI790
aI800
aI810
aI820
aI830
aI840
aI850
aI860
aI870
aI880
aI890
aI900
aI910
aI920
aI930
aI940
aI950
aI960
aI970
aI980
aI990
aI1000
aI1010
aI1020
aI1030
aI1040
aI1050
aI1060
aI1070
aI1080
aI1090
aI1100
aI1110
aI1120
aI1130
aI1140
aI1150
aI1160
aI1170
asg8
(lp39
I0
aI4
aI6
aI8
aI12
aI14
aI16
aI17
aI22
aI25
aI30
aI31
aI34
aI37
aI39
aI40
aI41
aI43
aI44
aI45
aI45
aI46
aI48
aI49
aI50
aI51
aI53
aI54
aI54
aI56
aI57
aI57
aI57
aI59
aI61
aI64
aI64
aI67
aI67
aI69
aI71
aI71
aI72
aI73
aI75
aI77
aI77
aI78
aI78
aI79
aI82
aI83
aI84
aI85
aI88
aI88
aI90
aI92
aI94
aI94
aI95
aI96
aI100
aI101
aI102
aI102
aI102
aI103
aI104
aI105
aI107
aI108
aI108
aI108
aI108
aI108
aI108
aI108
aI112
aI113
aI115
aI117
aI118
aI118
aI118
aI120
aI120
aI121
aI122
aI122
aI122
aI122
aI122
aI124
aI124
aI124
aI124
aI124
aI125
aI126
aI127
aI128
aI128
aI129
aI129
aI129
aI130
aI131
aI132
aI133
aI133
aI133
aI133
aI134
aI135
aI136
aI137
aI138
asa(dp40
g6
(lp41
I0
aI10
aI20
aI30
aI40
aI50
aI60
aI70
aI80
aI90
aI100
aI110
aI120
aI130
aI140
aI150
aI160
aI170
aI180
aI190
aI200
aI210
aI220
aI230
aI240
aI250
aI260
aI270
aI280
aI290
aI300
aI310
aI320
aI330
aI340
aI350
aI360
aI370
aI380
aI390
aI400
aI410
aI420
aI430
aI440
aI450
aI460
aI470
aI480
aI490
aI500
aI510
aI520
aI530
aI540
aI550
aI560
aI570
aI580
aI590
aI600
aI610
aI620
aI630
aI640
aI650
aI660
aI670
aI680
aI690
aI700
aI710
aI720
aI730
aI740
aI750
aI760
aI770
aI780
aI790
aI800
aI810
aI820
aI830
aI840
aI850
aI860
aI870
aI880
aI890
aI900
aI910
aI920
aI930
aI940
aI950
aI960
aI970
aI980
aI990
aI1000
aI1010
aI1020
aI1030
aI1040
aI1050
aI1060
aI1070
aI1080
aI1090
aI1100
aI1110
aI1120
aI1130
aI1140
aI1150
aI1160
aI1170
aI1180
aI1190
aI1200
aI1210
aI1220
asg8
(lp42
I0
aI3
aI7
aI8
aI9
aI13
aI14
aI14
aI16
aI19
aI23
aI27
aI30
aI30
aI30
aI33
aI35
aI35
aI36
aI40
aI41
aI42
aI43
aI43
aI43
aI45
aI46
aI48
aI50
aI52
aI55
aI57
aI59
aI61
aI62
aI63
aI63
aI66
aI67
aI69
aI70
aI71
aI72
aI73
aI73
aI75
aI78
aI80
aI80
aI81
aI81
aI83
aI85
aI89
aI91
aI92
aI93
aI93
aI95
aI96
aI97
aI97
aI98
aI101
aI102
aI103
aI103
aI104
aI105
aI105
aI105
aI107
aI109
aI109
aI110
aI110
aI111
aI111
aI111
aI111
aI113
aI113
aI113
aI114
aI115
aI115
aI115
aI115
aI115
aI116
aI118
aI118
aI120
aI122
aI124
aI125
aI125
aI126
aI128
aI129
aI130
aI130
aI130
aI130
aI131
aI132
aI132
aI132
aI132
aI132
aI133
aI133
aI133
aI134
aI134
aI134
aI135
aI136
aI136
aI137
aI137
aI137
aI138
asa(dp43
g6
(lp44
I0
aI10
aI20
aI30
aI40
aI50
aI60
aI70
aI80
aI90
aI100
aI110
aI120
aI130
aI140
aI150
aI160
aI170
aI180
aI190
aI200
aI210
aI220
aI230
aI240
aI250
aI260
aI270
aI280
aI290
aI300
aI310
aI320
aI330
aI340
aI350
aI360
aI370
aI380
aI390
aI400
aI410
aI420
aI430
aI440
aI450
aI460
aI470
aI480
aI490
aI500
aI510
aI520
aI530
aI540
aI550
aI560
aI570
aI580
aI590
aI600
aI610
aI620
aI630
aI640
aI650
aI660
aI670
aI680
aI690
aI700
aI710
aI720
aI730
aI740
aI750
aI760
aI770
aI780
aI790
aI800
aI810
aI820
aI830
aI840
aI850
aI860
aI870
aI880
aI890
aI900
aI910
aI920
aI930
aI940
aI950
aI960
aI970
aI980
aI990
aI1000
aI1010
aI1020
aI1030
aI1040
aI1050
aI1060
aI1070
aI1080
aI1090
aI1100
aI1110
aI1120
aI1130
aI1140
asg8
(lp45
I0
aI3
aI3
aI5
aI6
aI9
aI13
aI16
aI18
aI19
aI20
aI21
aI25
aI30
aI35
aI38
aI38
aI40
aI41
aI43
aI44
aI45
aI46
aI46
aI48
aI50
aI52
aI53
aI55
aI55
aI58
aI59
aI60
aI60
aI61
aI62
aI63
aI63
aI66
aI67
aI70
aI72
aI74
aI74
aI76
aI77
aI78
aI80
aI81
aI82
aI82
aI83
aI84
aI87
aI89
aI90
aI91
aI91
aI93
aI97
aI97
aI99
aI99
aI101
aI103
aI104
aI104
aI105
aI105
aI106
aI107
aI107
aI108
aI109
aI110
aI110
aI111
aI112
aI112
aI112
aI112
aI113
aI113
aI114
aI114
aI114
aI114
aI114
aI116
aI118
aI118
aI120
aI121
aI122
aI124
aI125
aI126
aI128
aI128
aI129
aI129
aI129
aI131
aI131
aI131
aI131
aI131
aI131
aI131
aI133
aI134
aI135
aI136
aI137
aI138
asa(dp46
g6
(lp47
I0
aI10
aI20
aI30
aI40
aI50
aI60
aI70
aI80
aI90
aI100
aI110
aI120
aI130
aI140
aI150
aI160
aI170
aI180
aI190
aI200
aI210
aI220
aI230
aI240
aI250
aI260
aI270
aI280
aI290
aI300
aI310
aI320
aI330
aI340
aI350
aI360
aI370
aI380
aI390
aI400
aI410
aI420
aI430
aI440
aI450
aI460
aI470
aI480
aI490
aI500
aI510
aI520
aI530
aI540
aI550
aI560
aI570
aI580
aI590
aI600
aI610
aI620
aI630
aI640
aI650
aI660
aI670
aI680
aI690
aI700
aI710
aI720
aI730
aI740
aI750
aI760
aI770
aI780
aI790
aI800
aI810
aI820
aI830
aI840
aI850
aI860
aI870
aI880
aI890
aI900
aI910
aI920
aI930
aI940
aI950
aI960
aI970
aI980
aI990
aI1000
aI1010
aI1020
aI1030
aI1040
aI1050
aI1060
aI1070
aI1080
aI1090
aI1100
aI1110
aI1120
aI1130
aI1140
asg8
(lp48
I0
aI2
aI6
aI8
aI12
aI13
aI15
aI18
aI20
aI23
aI25
aI29
aI31
aI31
aI32
aI33
aI34
aI36
aI37
aI37
aI38
aI42
aI43
aI44
aI47
aI47
aI49
aI49
aI51
aI51
aI53
aI55
aI56
aI58
aI60
aI60
aI61
aI64
aI64
aI65
aI67
aI67
aI68
aI71
aI73
aI78
aI78
aI81
aI81
aI82
aI82
aI84
aI85
aI86
aI87
aI89
aI90
aI90
aI91
aI93
aI94
aI94
aI94
aI96
aI97
aI99
aI100
aI100
aI100
aI100
aI102
aI102
aI103
aI105
aI106
aI107
aI107
aI108
aI109
aI109
aI111
aI112
aI115
aI115
aI116
aI118
aI118
aI118
aI119
aI120
aI122
aI122
aI122
aI123
aI123
aI123
aI124
aI125
aI126
aI127
aI127
aI127
aI129
aI129
aI131
aI131
aI131
aI131
aI132
aI133
aI134
aI135
aI136
aI137
aI138
asa(dp49
g6
(lp50
I0
aI10
aI20
aI30
aI40
aI50
aI60
aI70
aI80
aI90
aI100
aI110
aI120
aI130
aI140
aI150
aI160
aI170
aI180
aI190
aI200
aI210
aI220
aI230
aI240
aI250
aI260
aI270
aI280
aI290
aI300
aI310
aI320
aI330
aI340
aI350
aI360
aI370
aI380
aI390
aI400
aI410
aI420
aI430
aI440
aI450
aI460
aI470
aI480
aI490
aI500
aI510
aI520
aI530
aI540
aI550
aI560
aI570
aI580
aI590
aI600
aI610
aI620
aI630
aI640
aI650
aI660
aI670
aI680
aI690
aI700
aI710
aI720
aI730
aI740
aI750
aI760
aI770
aI780
aI790
aI800
aI810
aI820
aI830
aI840
aI850
aI860
aI870
aI880
aI890
aI900
aI910
aI920
aI930
aI940
aI950
aI960
aI970
aI980
aI990
aI1000
aI1010
aI1020
aI1030
aI1040
aI1050
aI1060
aI1070
aI1080
aI1090
aI1100
aI1110
aI1120
aI1130
aI1140
aI1150
aI1160
aI1170
aI1180
aI1190
asg8
(lp51
I0
aI3
aI6
aI9
aI11
aI13
aI14
aI18
aI21
aI24
aI25
aI26
aI27
aI29
aI33
aI33
aI33
aI34
aI37
aI41
aI42
aI43
aI44
aI45
aI46
aI47
aI48
aI49
aI50
aI52
aI55
aI57
aI57
aI58
aI60
aI61
aI62
aI63
aI64
aI66
aI66
aI68
aI70
aI73
aI73
aI76
aI76
aI78
aI78
aI81
aI82
aI82
aI82
aI82
aI83
aI84
aI85
aI86
aI90
aI90
aI92
aI93
aI94
aI95
aI95
aI97
aI97
aI100
aI100
aI100
aI101
aI102
aI103
aI104
aI106
aI108
aI110
aI111
aI113
aI113
aI115
aI115
aI117
aI118
aI118
aI119
aI121
aI122
aI122
aI123
aI123
aI123
aI125
aI125
aI125
aI125
aI126
aI127
aI127
aI127
aI129
aI129
aI129
aI130
aI131
aI132
aI133
aI134
aI134
aI135
aI135
aI135
aI135
aI136
aI136
aI136
aI137
aI137
aI137
aI138
asa(dp52
g6
(lp53
I0
aI10
aI20
aI30
aI40
aI50
aI60
aI70
aI80
aI90
aI100
aI110
aI120
aI130
aI140
aI150
aI160
aI170
aI180
aI190
aI200
aI210
aI220
aI230
aI240
aI250
aI260
aI270
aI280
aI290
aI300
aI310
aI320
aI330
aI340
aI350
aI360
aI370
aI380
aI390
aI400
aI410
aI420
aI430
aI440
aI450
aI460
aI470
aI480
aI490
aI500
aI510
aI520
aI530
aI540
aI550
aI560
aI570
aI580
aI590
aI600
aI610
aI620
aI630
aI640
aI650
aI660
aI670
aI680
aI690
aI700
aI710
aI720
aI730
aI740
aI750
aI760
aI770
aI780
aI790
aI800
aI810
aI820
aI830
aI840
aI850
aI860
aI870
aI880
aI890
aI900
aI910
aI920
aI930
aI940
aI950
aI960
aI970
aI980
aI990
aI1000
aI1010
aI1020
aI1030
aI1040
aI1050
aI1060
aI1070
aI1080
aI1090
aI1100
aI1110
aI1120
asg8
(lp54
I0
aI3
aI7
aI8
aI9
aI11
aI14
aI16
aI18
aI20
aI24
aI27
aI29
aI30
aI32
aI35
aI36
aI38
aI39
aI43
aI45
aI46
aI47
aI47
aI47
aI48
aI51
aI52
aI52
aI53
aI54
aI56
aI56
aI57
aI59
aI60
aI61
aI61
aI62
aI63
aI65
aI65
aI68
aI69
aI71
aI74
aI75
aI76
aI78
aI80
aI80
aI80
aI80
aI82
aI84
aI86
aI87
aI88
aI91
aI93
aI96
aI97
aI99
aI99
aI100
aI101
aI103
aI104
aI105
aI105
aI106
aI107
aI109
aI110
aI110
aI111
aI112
aI113
aI115
aI115
aI116
aI117
aI117
aI117
aI119
aI120
aI121
aI122
aI123
aI123
aI123
aI124
aI124
aI125
aI126
aI126
aI126
aI127
aI127
aI128
aI129
aI129
aI130
aI131
aI131
aI131
aI132
aI133
aI134
aI135
aI136
aI137
aI138
asa(dp55
g6
(lp56
I0
aI10
aI20
aI30
aI40
aI50
aI60
aI70
aI80
aI90
aI100
aI110
aI120
aI130
aI140
aI150
aI160
aI170
aI180
aI190
aI200
aI210
aI220
aI230
aI240
aI250
aI260
aI270
aI280
aI290
aI300
aI310
aI320
aI330
aI340
aI350
aI360
aI370
aI380
aI390
aI400
aI410
aI420
aI430
aI440
aI450
aI460
aI470
aI480
aI490
aI500
aI510
aI520
aI530
aI540
aI550
aI560
aI570
aI580
aI590
aI600
aI610
aI620
aI630
aI640
aI650
aI660
aI670
aI680
aI690
aI700
aI710
aI720
aI730
aI740
aI750
aI760
aI770
aI780
aI790
aI800
aI810
aI820
aI830
aI840
aI850
aI860
aI870
aI880
aI890
aI900
aI910
aI920
aI930
aI940
aI950
aI960
aI970
aI980
aI990
aI1000
aI1010
aI1020
aI1030
aI1040
aI1050
aI1060
aI1070
aI1080
aI1090
aI1100
aI1110
aI1120
aI1130
aI1140
aI1150
aI1160
aI1170
aI1180
aI1190
aI1200
asg8
(lp57
I0
aI3
aI6
aI10
aI12
aI16
aI16
aI21
aI24
aI25
aI26
aI29
aI29
aI30
aI34
aI35
aI36
aI39
aI39
aI42
aI43
aI44
aI44
aI45
aI45
aI48
aI50
aI52
aI53
aI54
aI57
aI58
aI58
aI59
aI60
aI61
aI62
aI62
aI63
aI65
aI66
aI67
aI68
aI69
aI72
aI73
aI77
aI79
aI79
aI79
aI79
aI80
aI80
aI83
aI85
aI85
aI88
aI92
aI95
aI96
aI96
aI97
aI97
aI97
aI97
aI99
aI101
aI101
aI101
aI101
aI102
aI104
aI105
aI106
aI107
aI109
aI110
aI110
aI111
aI111
aI111
aI112
aI115
aI116
aI118
aI120
aI121
aI122
aI123
aI123
aI123
aI124
aI124
aI124
aI125
aI125
aI126
aI126
aI127
aI127
aI127
aI127
aI127
aI127
aI127
aI129
aI129
aI130
aI132
aI133
aI134
aI134
aI135
aI135
aI135
aI137
aI137
aI137
aI137
aI137
aI138
asa(dp58
g6
(lp59
I0
aI10
aI20
aI30
aI40
aI50
aI60
aI70
aI80
aI90
aI100
aI110
aI120
aI130
aI140
aI150
aI160
aI170
aI180
aI190
aI200
aI210
aI220
aI230
aI240
aI250
aI260
aI270
aI280
aI290
aI300
aI310
aI320
aI330
aI340
aI350
aI360
aI370
aI380
aI390
aI400
aI410
aI420
aI430
aI440
aI450
aI460
aI470
aI480
aI490
aI500
aI510
aI520
aI530
aI540
aI550
aI560
aI570
aI580
aI590
aI600
aI610
aI620
aI630
aI640
aI650
aI660
aI670
aI680
aI690
aI700
aI710
aI720
aI730
aI740
aI750
aI760
aI770
aI780
aI790
aI800
aI810
aI820
aI830
aI840
aI850
aI860
aI870
aI880
aI890
aI900
aI910
aI920
aI930
aI940
aI950
aI960
aI970
aI980
aI990
aI1000
aI1010
aI1020
aI1030
aI1040
aI1050
aI1060
aI1070
aI1080
aI1090
aI1100
aI1110
aI1120
aI1130
asg8
(lp60
I0
aI3
aI6
aI7
aI8
aI11
aI15
aI18
aI20
aI22
aI24
aI25
aI27
aI31
aI33
aI36
aI38
aI39
aI43
aI44
aI46
aI46
aI47
aI48
aI51
aI52
aI52
aI53
aI54
aI54
aI56
aI58
aI60
aI63
aI64
aI66
aI68
aI70
aI70
aI70
aI71
aI74
aI75
aI78
aI79
aI79
aI79
aI79
aI80
aI81
aI82
aI84
aI86
aI88
aI90
aI92
aI93
aI95
aI96
aI97
aI99
aI100
aI101
aI101
aI101
aI102
aI103
aI103
aI103
aI104
aI104
aI107
aI107
aI108
aI110
aI111
aI111
aI114
aI114
aI114
aI116
aI116
aI116
aI117
aI117
aI117
aI118
aI118
aI119
aI121
aI124
aI124
aI124
aI124
aI124
aI125
aI126
aI128
aI128
aI129
aI129
aI130
aI131
aI131
aI131
aI131
aI131
aI132
aI133
aI134
aI135
aI136
aI137
aI138
asa(dp61
g6
(lp62
I0
aI10
aI20
aI30
aI40
aI50
aI60
aI70
aI80
aI90
aI100
aI110
aI120
aI130
aI140
aI150
aI160
aI170
aI180
aI190
aI200
aI210
aI220
aI230
aI240
aI250
aI260
aI270
aI280
aI290
aI300
aI310
aI320
aI330
aI340
aI350
aI360
aI370
aI380
aI390
aI400
aI410
aI420
aI430
aI440
aI450
aI460
aI470
aI480
aI490
aI500
aI510
aI520
aI530
aI540
aI550
aI560
aI570
aI580
aI590
aI600
aI610
aI620
aI630
aI640
aI650
aI660
aI670
aI680
aI690
aI700
aI710
aI720
aI730
aI740
aI750
aI760
aI770
aI780
aI790
aI800
aI810
aI820
aI830
aI840
aI850
aI860
aI870
aI880
aI890
aI900
aI910
aI920
aI930
aI940
aI950
aI960
aI970
aI980
aI990
aI1000
aI1010
aI1020
aI1030
aI1040
aI1050
aI1060
aI1070
aI1080
aI1090
aI1100
aI1110
aI1120
aI1130
aI1140
aI1150
asg8
(lp63
I0
aI4
aI5
aI8
aI11
aI13
aI16
aI19
aI22
aI23
aI27
aI28
aI30
aI31
aI32
aI34
aI36
aI39
aI40
aI41
aI42
aI43
aI44
aI46
aI49
aI49
aI52
aI53
aI54
aI54
aI55
aI57
aI58
aI60
aI60
aI61
aI62
aI63
aI66
aI68
aI70
aI72
aI74
aI75
aI76
aI77
aI77
aI78
aI80
aI83
aI83
aI83
aI86
aI86
aI86
aI87
aI89
aI89
aI91
aI93
aI93
aI95
aI97
aI100
aI101
aI102
aI103
aI103
aI105
aI105
aI105
aI108
aI108
aI108
aI109
aI109
aI111
aI112
aI112
aI112
aI112
aI112
aI112
aI113
aI114
aI114
aI114
aI114
aI114
aI116
aI118
aI118
aI120
aI121
aI122
aI124
aI125
aI126
aI127
aI128
aI128
aI129
aI129
aI130
aI131
aI131
aI131
aI131
aI131
aI132
aI133
aI134
aI135
aI136
aI137
aI138
asa(dp64
g6
(lp65
I0
aI10
aI20
aI30
aI40
aI50
aI60
aI70
aI80
aI90
aI100
aI110
aI120
aI130
aI140
aI150
aI160
aI170
aI180
aI190
aI200
aI210
aI220
aI230
aI240
aI250
aI260
aI270
aI280
aI290
aI300
aI310
aI320
aI330
aI340
aI350
aI360
aI370
aI380
aI390
aI400
aI410
aI420
aI430
aI440
aI450
aI460
aI470
aI480
aI490
aI500
aI510
aI520
aI530
aI540
aI550
aI560
aI570
aI580
aI590
aI600
aI610
aI620
aI630
aI640
aI650
aI660
aI670
aI680
aI690
aI700
aI710
aI720
aI730
aI740
aI750
aI760
aI770
aI780
aI790
aI800
aI810
aI820
aI830
aI840
aI850
aI860
aI870
aI880
aI890
aI900
aI910
aI920
aI930
aI940
aI950
aI960
aI970
aI980
aI990
aI1000
aI1010
aI1020
aI1030
aI1040
aI1050
aI1060
aI1070
aI1080
aI1090
aI1100
aI1110
aI1120
aI1130
aI1140
aI1150
aI1160
aI1170
aI1180
aI1190
aI1200
asg8
(lp66
I0
aI4
aI7
aI7
aI10
aI11
aI13
aI16
aI18
aI18
aI20
aI22
aI27
aI31
aI33
aI36
aI36
aI37
aI40
aI40
aI41
aI44
aI47
aI48
aI49
aI50
aI51
aI53
aI56
aI56
aI56
aI57
aI59
aI60
aI61
aI63
aI63
aI65
aI65
aI65
aI69
aI70
aI73
aI75
aI75
aI75
aI79
aI80
aI80
aI82
aI84
aI84
aI85
aI85
aI88
aI89
aI89
aI92
aI93
aI95
aI97
aI97
aI97
aI99
aI100
aI100
aI101
aI104
aI105
aI105
aI107
aI107
aI108
aI110
aI111
aI111
aI113
aI113
aI115
aI116
aI117
aI117
aI118
aI119
aI119
aI119
aI120
aI120
aI120
aI121
aI121
aI121
aI121
aI121
aI124
aI126
aI127
aI128
aI128
aI129
aI131
aI131
aI131
aI131
aI131
aI132
aI132
aI132
aI133
aI133
aI133
aI133
aI134
aI134
aI135
aI135
aI135
aI136
aI137
aI137
aI138
asa(dp67
g6
(lp68
I0
aI10
aI20
aI30
aI40
aI50
aI60
aI70
aI80
aI90
aI100
aI110
aI120
aI130
aI140
aI150
aI160
aI170
aI180
aI190
aI200
aI210
aI220
aI230
aI240
aI250
aI260
aI270
aI280
aI290
aI300
aI310
aI320
aI330
aI340
aI350
aI360
aI370
aI380
aI390
aI400
aI410
aI420
aI430
aI440
aI450
aI460
aI470
aI480
aI490
aI500
aI510
aI520
aI530
aI540
aI550
aI560
aI570
aI580
aI590
aI600
aI610
aI620
aI630
aI640
aI650
aI660
aI670
aI680
aI690
aI700
aI710
aI720
aI730
aI740
aI750
aI760
aI770
aI780
aI790
aI800
aI810
aI820
aI830
aI840
aI850
aI860
aI870
aI880
aI890
aI900
aI910
aI920
aI930
aI940
aI950
aI960
aI970
aI980
aI990
aI1000
aI1010
aI1020
aI1030
aI1040
aI1050
aI1060
aI1070
aI1080
aI1090
aI1100
aI1110
aI1120
aI1130
aI1140
asg8
(lp69
I0
aI2
aI5
aI6
aI9
aI12
aI15
aI17
aI21
aI23
aI25
aI30
aI32
aI32
aI34
aI36
aI37
aI39
aI41
aI41
aI41
aI43
aI43
aI45
aI48
aI48
aI50
aI51
aI54
aI54
aI55
aI56
aI58
aI60
aI60
aI61
aI61
aI62
aI65
aI66
aI69
aI70
aI71
aI72
aI74
aI76
aI77
aI78
aI78
aI80
aI80
aI82
aI83
aI84
aI87
aI88
aI89
aI91
aI92
aI94
aI96
aI99
aI100
aI100
aI102
aI102
aI104
aI105
aI105
aI107
aI107
aI107
aI107
aI107
aI107
aI107
aI109
aI109
aI111
aI112
aI112
aI113
aI115
aI116
aI116
aI117
aI117
aI119
aI120
aI121
aI122
aI123
aI124
aI125
aI126
aI126
aI127
aI128
aI128
aI128
aI128
aI129
aI129
aI129
aI130
aI131
aI131
aI131
aI132
aI133
aI134
aI135
aI136
aI137
aI138
asa(dp70
g6
(lp71
I0
aI10
aI20
aI30
aI40
aI50
aI60
aI70
aI80
aI90
aI100
aI110
aI120
aI130
aI140
aI150
aI160
aI170
aI180
aI190
aI200
aI210
aI220
aI230
aI240
aI250
aI260
aI270
aI280
aI290
aI300
aI310
aI320
aI330
aI340
aI350
aI360
aI370
aI380
aI390
aI400
aI410
aI420
aI430
aI440
aI450
aI460
aI470
aI480
aI490
aI500
aI510
aI520
aI530
aI540
aI550
aI560
aI570
aI580
aI590
aI600
aI610
aI620
aI630
aI640
aI650
aI660
aI670
aI680
aI690
aI700
aI710
aI720
aI730
aI740
aI750
aI760
aI770
aI780
aI790
aI800
aI810
aI820
aI830
aI840
aI850
aI860
aI870
aI880
aI890
aI900
aI910
aI920
aI930
aI940
aI950
aI960
aI970
aI980
aI990
aI1000
aI1010
aI1020
aI1030
aI1040
aI1050
aI1060
aI1070
aI1080
aI1090
aI1100
aI1110
aI1120
aI1130
aI1140
aI1150
aI1160
aI1170
asg8
(lp72
I0
aI3
aI6
aI9
aI10
aI14
aI18
aI19
aI21
aI24
aI27
aI27
aI31
aI34
aI36
aI36
aI36
aI38
aI39
aI41
aI43
aI45
aI46
aI47
aI47
aI49
aI50
aI53
aI54
aI56
aI56
aI56
aI58
aI59
aI61
aI62
aI64
aI64
aI65
aI66
aI67
aI71
aI73
aI75
aI76
aI76
aI76
aI77
aI77
aI78
aI80
aI81
aI82
aI83
aI85
aI89
aI92
aI93
aI95
aI95
aI95
aI97
aI97
aI100
aI102
aI103
aI104
aI104
aI104
aI106
aI107
aI108
aI108
aI111
aI111
aI112
aI114
aI114
aI116
aI116
aI117
aI117
aI119
aI121
aI121
aI122
aI124
aI125
aI126
aI126
aI127
aI127
aI127
aI127
aI128
aI130
aI130
aI130
aI131
aI132
aI132
aI133
aI133
aI133
aI133
aI133
aI133
aI134
aI135
aI135
aI135
aI136
aI136
aI136
aI137
aI137
aI137
aI138
asa(dp73
g6
(lp74
I0
aI10
aI20
aI30
aI40
aI50
aI60
aI70
aI80
aI90
aI100
aI110
aI120
aI130
aI140
aI150
aI160
aI170
aI180
aI190
aI200
aI210
aI220
aI230
aI240
aI250
aI260
aI270
aI280
aI290
aI300
aI310
aI320
aI330
aI340
aI350
aI360
aI370
aI380
aI390
aI400
aI410
aI420
aI430
aI440
aI450
aI460
aI470
aI480
aI490
aI500
aI510
aI520
aI530
aI540
aI550
aI560
aI570
aI580
aI590
aI600
aI610
aI620
aI630
aI640
aI650
aI660
aI670
aI680
aI690
aI700
aI710
aI720
aI730
aI740
aI750
aI760
aI770
aI780
aI790
aI800
aI810
aI820
aI830
aI840
aI850
aI860
aI870
aI880
aI890
aI900
aI910
aI920
aI930
aI940
aI950
aI960
aI970
aI980
aI990
aI1000
aI1010
aI1020
aI1030
aI1040
aI1050
aI1060
aI1070
aI1080
aI1090
aI1100
aI1110
aI1120
aI1130
aI1140
aI1150
aI1160
aI1170
aI1180
aI1190
asg8
(lp75
I0
aI3
aI6
aI7
aI9
aI11
aI14
aI18
aI21
aI21
aI24
aI28
aI29
aI31
aI33
aI37
aI39
aI40
aI41
aI42
aI43
aI45
aI46
aI46
aI47
aI48
aI50
aI52
aI53
aI55
aI56
aI57
aI59
aI61
aI62
aI62
aI63
aI64
aI67
aI68
aI71
aI71
aI73
aI75
aI75
aI76
aI76
aI76
aI79
aI80
aI80
aI82
aI83
aI84
aI86
aI86
aI88
aI89
aI90
aI92
aI94
aI95
aI96
aI97
aI98
aI98
aI98
aI99
aI99
aI100
aI100
aI101
aI102
aI103
aI103
aI104
aI104
aI106
aI108
aI111
aI114
aI115
aI116
aI119
aI120
aI123
aI124
aI124
aI124
aI124
aI124
aI124
aI125
aI125
aI126
aI126
aI126
aI127
aI127
aI128
aI128
aI128
aI128
aI129
aI130
aI131
aI132
aI132
aI132
aI134
aI134
aI136
aI136
aI136
aI136
aI136
aI137
aI137
aI137
aI138
asa(dp76
g6
(lp77
I0
aI10
aI20
aI30
aI40
aI50
aI60
aI70
aI80
aI90
aI100
aI110
aI120
aI130
aI140
aI150
aI160
aI170
aI180
aI190
aI200
aI210
aI220
aI230
aI240
aI250
aI260
aI270
aI280
aI290
aI300
aI310
aI320
aI330
aI340
aI350
aI360
aI370
aI380
aI390
aI400
aI410
aI420
aI430
aI440
aI450
aI460
aI470
aI480
aI490
aI500
aI510
aI520
aI530
aI540
aI550
aI560
aI570
aI580
aI590
aI600
aI610
aI620
aI630
aI640
aI650
aI660
aI670
aI680
aI690
aI700
aI710
aI720
aI730
aI740
aI750
aI760
aI770
aI780
aI790
aI800
aI810
aI820
aI830
aI840
aI850
aI860
aI870
aI880
aI890
aI900
aI910
aI920
aI930
aI940
aI950
aI960
aI970
aI980
aI990
aI1000
aI1010
aI1020
aI1030
aI1040
aI1050
aI1060
aI1070
aI1080
aI1090
aI1100
aI1110
aI1120
aI1130
asg8
(lp78
I0
aI3
aI5
aI5
aI6
aI9
aI14
aI15
aI18
aI20
aI23
aI25
aI28
aI30
aI31
aI34
aI35
aI37
aI40
aI42
aI43
aI44
aI45
aI46
aI47
aI49
aI50
aI53
aI54
aI55
aI55
aI55
aI57
aI59
aI62
aI63
aI64
aI66
aI66
aI67
aI69
aI71
aI73
aI76
aI78
aI79
aI80
aI81
aI81
aI82
aI83
aI85
aI86
aI86
aI88
aI88
aI90
aI91
aI92
aI93
aI95
aI97
aI98
aI98
aI100
aI101
aI102
aI103
aI104
aI106
aI106
aI106
aI106
aI108
aI111
aI112
aI113
aI113
aI116
aI117
aI117
aI118
aI118
aI119
aI121
aI123
aI124
aI124
aI124
aI124
aI124
aI124
aI125
aI126
aI126
aI126
aI126
aI127
aI127
aI128
aI129
aI129
aI130
aI131
aI131
aI131
aI131
aI132
aI133
aI134
aI135
aI136
aI137
aI138
asa(dp79
g6
(lp80
I0
aI10
aI20
aI30
aI40
aI50
aI60
aI70
aI80
aI90
aI100
aI110
aI120
aI130
aI140
aI150
aI160
aI170
aI180
aI190
aI200
aI210
aI220
aI230
aI240
aI250
aI260
aI270
aI280
aI290
aI300
aI310
aI320
aI330
aI340
aI350
aI360
aI370
aI380
aI390
aI400
aI410
aI420
aI430
aI440
aI450
aI460
aI470
aI480
aI490
aI500
aI510
aI520
aI530
aI540
aI550
aI560
aI570
aI580
aI590
aI600
aI610
aI620
aI630
aI640
aI650
aI660
aI670
aI680
aI690
aI700
aI710
aI720
aI730
aI740
aI750
aI760
aI770
aI780
aI790
aI800
aI810
aI820
aI830
aI840
aI850
aI860
aI870
aI880
aI890
aI900
aI910
aI920
aI930
aI940
aI950
aI960
aI970
aI980
aI990
aI1000
aI1010
aI1020
aI1030
aI1040
aI1050
aI1060
aI1070
aI1080
aI1090
aI1100
aI1110
aI1120
aI1130
aI1140
aI1150
aI1160
asg8
(lp81
I0
aI4
aI6
aI9
aI13
aI15
aI18
aI20
aI22
aI24
aI29
aI31
aI35
aI37
aI38
aI39
aI41
aI42
aI45
aI47
aI49
aI49
aI51
aI52
aI53
aI54
aI57
aI57
aI58
aI58
aI60
aI62
aI62
aI65
aI66
aI68
aI68
aI70
aI72
aI73
aI73
aI75
aI75
aI76
aI77
aI77
aI77
aI77
aI78
aI81
aI85
aI86
aI86
aI87
aI88
aI90
aI90
aI91
aI92
aI93
aI93
aI95
aI96
aI98
aI99
aI99
aI100
aI102
aI104
aI105
aI105
aI107
aI108
aI108
aI108
aI108
aI108
aI109
aI109
aI111
aI111
aI112
aI114
aI116
aI119
aI120
aI121
aI121
aI122
aI122
aI122
aI122
aI122
aI123
aI123
aI123
aI123
aI125
aI125
aI126
aI126
aI126
aI126
aI127
aI130
aI130
aI130
aI132
aI133
aI133
aI134
aI136
aI136
aI137
aI137
aI137
aI138
asa(dp82
g6
(lp83
I0
aI10
aI20
aI30
aI40
aI50
aI60
aI70
aI80
aI90
aI100
aI110
aI120
aI130
aI140
aI150
aI160
aI170
aI180
aI190
aI200
aI210
aI220
aI230
aI240
aI250
aI260
aI270
aI280
aI290
aI300
aI310
aI320
aI330
aI340
aI350
aI360
aI370
aI380
aI390
aI400
aI410
aI420
aI430
aI440
aI450
aI460
aI470
aI480
aI490
aI500
aI510
aI520
aI530
aI540
aI550
aI560
aI570
aI580
aI590
aI600
aI610
aI620
aI630
aI640
aI650
aI660
aI670
aI680
aI690
aI700
aI710
aI720
aI730
aI740
aI750
aI760
aI770
aI780
aI790
aI800
aI810
aI820
aI830
aI840
aI850
aI860
aI870
aI880
aI890
aI900
aI910
aI920
aI930
aI940
aI950
aI960
aI970
aI980
aI990
aI1000
aI1010
aI1020
aI1030
aI1040
aI1050
aI1060
aI1070
aI1080
aI1090
aI1100
aI1110
aI1120
aI1130
aI1140
aI1150
aI1160
asg8
(lp84
I0
aI3
aI5
aI6
aI9
aI10
aI12
aI17
aI20
aI21
aI24
aI26
aI27
aI29
aI32
aI36
aI37
aI39
aI41
aI43
aI46
aI46
aI46
aI47
aI47
aI51
aI52
aI53
aI54
aI58
aI62
aI63
aI66
aI66
aI66
aI66
aI67
aI67
aI67
aI67
aI69
aI71
aI71
aI71
aI72
aI72
aI75
aI76
aI78
aI80
aI83
aI84
aI85
aI86
aI86
aI87
aI89
aI89
aI91
aI93
aI94
aI95
aI95
aI96
aI96
aI98
aI100
aI101
aI103
aI104
aI105
aI105
aI105
aI106
aI107
aI108
aI109
aI110
aI112
aI114
aI114
aI114
aI115
aI116
aI117
aI118
aI119
aI121
aI121
aI122
aI122
aI122
aI123
aI123
aI123
aI123
aI125
aI125
aI126
aI126
aI126
aI126
aI126
aI128
aI130
aI130
aI130
aI132
aI133
aI133
aI134
aI136
aI136
aI137
aI137
aI137
aI138
asa(dp85
g6
(lp86
I0
aI10
aI20
aI30
aI40
aI50
aI60
aI70
aI80
aI90
aI100
aI110
aI120
aI130
aI140
aI150
aI160
aI170
aI180
aI190
aI200
aI210
aI220
aI230
aI240
aI250
aI260
aI270
aI280
aI290
aI300
aI310
aI320
aI330
aI340
aI350
aI360
aI370
aI380
aI390
aI400
aI410
aI420
aI430
aI440
aI450
aI460
aI470
aI480
aI490
aI500
aI510
aI520
aI530
aI540
aI550
aI560
aI570
aI580
aI590
aI600
aI610
aI620
aI630
aI640
aI650
aI660
aI670
aI680
aI690
aI700
aI710
aI720
aI730
aI740
aI750
aI760
aI770
aI780
aI790
aI800
aI810
aI820
aI830
aI840
aI850
aI860
aI870
aI880
aI890
aI900
aI910
aI920
aI930
aI940
aI950
aI960
aI970
aI980
aI990
aI1000
aI1010
aI1020
aI1030
aI1040
aI1050
aI1060
aI1070
aI1080
aI1090
aI1100
aI1110
aI1120
aI1130
aI1140
aI1150
aI1160
aI1170
aI1180
asg8
(lp87
I0
aI4
aI7
aI8
aI11
aI13
aI14
aI16
aI16
aI19
aI22
aI26
aI29
aI30
aI32
aI33
aI34
aI35
aI36
aI37
aI39
aI43
aI44
aI44
aI46
aI49
aI49
aI50
aI52
aI52
aI53
aI54
aI57
aI60
aI61
aI62
aI62
aI64
aI66
aI66
aI69
aI71
aI73
aI74
aI74
aI77
aI77
aI78
aI79
aI81
aI82
aI83
aI84
aI84
aI84
aI87
aI89
aI91
aI92
aI93
aI96
aI96
aI97
aI97
aI98
aI100
aI101
aI101
aI101
aI102
aI104
aI106
aI108
aI108
aI108
aI110
aI113
aI115
aI116
aI116
aI116
aI116
aI116
aI116
aI117
aI118
aI119
aI119
aI119
aI119
aI120
aI120
aI120
aI121
aI121
aI122
aI123
aI124
aI124
aI124
aI125
aI125
aI127
aI128
aI128
aI129
aI129
aI129
aI130
aI131
aI132
aI133
aI133
aI133
aI134
aI135
aI136
aI137
aI138
asa(dp88
g6
(lp89
I0
aI10
aI20
aI30
aI40
aI50
aI60
aI70
aI80
aI90
aI100
aI110
aI120
aI130
aI140
aI150
aI160
aI170
aI180
aI190
aI200
aI210
aI220
aI230
aI240
aI250
aI260
aI270
aI280
aI290
aI300
aI310
aI320
aI330
aI340
aI350
aI360
aI370
aI380
aI390
aI400
aI410
aI420
aI430
aI440
aI450
aI460
aI470
aI480
aI490
aI500
aI510
aI520
aI530
aI540
aI550
aI560
aI570
aI580
aI590
aI600
aI610
aI620
aI630
aI640
aI650
aI660
aI670
aI680
aI690
aI700
aI710
aI720
aI730
aI740
aI750
aI760
aI770
aI780
aI790
aI800
aI810
aI820
aI830
aI840
aI850
aI860
aI870
aI880
aI890
aI900
aI910
aI920
aI930
aI940
aI950
aI960
aI970
aI980
aI990
aI1000
aI1010
aI1020
aI1030
aI1040
aI1050
aI1060
aI1070
aI1080
aI1090
aI1100
aI1110
aI1120
aI1130
aI1140
aI1150
aI1160
aI1170
aI1180
asg8
(lp90
I0
aI4
aI5
aI6
aI8
aI12
aI14
aI16
aI20
aI22
aI25
aI28
aI30
aI30
aI30
aI33
aI37
aI38
aI40
aI41
aI42
aI43
aI44
aI47
aI47
aI50
aI52
aI54
aI54
aI55
aI55
aI56
aI58
aI59
aI60
aI61
aI64
aI65
aI65
aI67
aI68
aI68
aI69
aI69
aI73
aI75
aI76
aI77
aI77
aI79
aI82
aI83
aI84
aI87
aI87
aI87
aI89
aI90
aI93
aI93
aI93
aI93
aI96
aI97
aI98
aI99
aI100
aI101
aI102
aI102
aI102
aI105
aI107
aI109
aI110
aI111
aI112
aI115
aI118
aI120
aI121
aI121
aI121
aI122
aI123
aI125
aI125
aI125
aI125
aI125
aI125
aI126
aI126
aI126
aI126
aI127
aI127
aI127
aI128
aI128
aI128
aI128
aI129
aI130
aI131
aI132
aI132
aI133
aI134
aI135
aI135
aI136
aI136
aI136
aI136
aI137
aI137
aI137
aI138
asa(dp91
g6
(lp92
I0
aI10
aI20
aI30
aI40
aI50
aI60
aI70
aI80
aI90
aI100
aI110
aI120
aI130
aI140
aI150
aI160
aI170
aI180
aI190
aI200
aI210
aI220
aI230
aI240
aI250
aI260
aI270
aI280
aI290
aI300
aI310
aI320
aI330
aI340
aI350
aI360
aI370
aI380
aI390
aI400
aI410
aI420
aI430
aI440
aI450
aI460
aI470
aI480
aI490
aI500
aI510
aI520
aI530
aI540
aI550
aI560
aI570
aI580
aI590
aI600
aI610
aI620
aI630
aI640
aI650
aI660
aI670
aI680
aI690
aI700
aI710
aI720
aI730
aI740
aI750
aI760
aI770
aI780
aI790
aI800
aI810
aI820
aI830
aI840
aI850
aI860
aI870
aI880
aI890
aI900
aI910
aI920
aI930
aI940
aI950
aI960
aI970
aI980
aI990
aI1000
aI1010
aI1020
aI1030
aI1040
aI1050
aI1060
aI1070
aI1080
aI1090
aI1100
aI1110
aI1120
aI1130
aI1140
aI1150
aI1160
aI1170
aI1180
asg8
(lp93
I0
aI4
aI7
aI9
aI11
aI13
aI15
aI18
aI23
aI24
aI28
aI31
aI32
aI33
aI36
aI38
aI39
aI41
aI43
aI44
aI44
aI44
aI45
aI47
aI49
aI50
aI51
aI52
aI53
aI53
aI55
aI56
aI57
aI58
aI59
aI60
aI61
aI61
aI61
aI62
aI65
aI69
aI72
aI76
aI76
aI76
aI76
aI79
aI80
aI81
aI82
aI84
aI87
aI87
aI88
aI88
aI90
aI90
aI91
aI93
aI94
aI96
aI96
aI97
aI98
aI98
aI99
aI100
aI102
aI102
aI104
aI105
aI106
aI108
aI108
aI110
aI111
aI111
aI113
aI114
aI114
aI114
aI115
aI116
aI118
aI118
aI120
aI120
aI122
aI123
aI124
aI125
aI127
aI127
aI127
aI127
aI127
aI128
aI128
aI129
aI129
aI131
aI132
aI133
aI134
aI134
aI134
aI135
aI135
aI135
aI135
aI136
aI136
aI136
aI136
aI137
aI137
aI137
aI138
asa(dp94
g6
(lp95
I0
aI10
aI20
aI30
aI40
aI50
aI60
aI70
aI80
aI90
aI100
aI110
aI120
aI130
aI140
aI150
aI160
aI170
aI180
aI190
aI200
aI210
aI220
aI230
aI240
aI250
aI260
aI270
aI280
aI290
aI300
aI310
aI320
aI330
aI340
aI350
aI360
aI370
aI380
aI390
aI400
aI410
aI420
aI430
aI440
aI450
aI460
aI470
aI480
aI490
aI500
aI510
aI520
aI530
aI540
aI550
aI560
aI570
aI580
aI590
aI600
aI610
aI620
aI630
aI640
aI650
aI660
aI670
aI680
aI690
aI700
aI710
aI720
aI730
aI740
aI750
aI760
aI770
aI780
aI790
aI800
aI810
aI820
aI830
aI840
aI850
aI860
aI870
aI880
aI890
aI900
aI910
aI920
aI930
aI940
aI950
aI960
aI970
aI980
aI990
aI1000
aI1010
aI1020
aI1030
aI1040
aI1050
aI1060
aI1070
aI1080
aI1090
aI1100
aI1110
aI1120
aI1130
asg8
(lp96
I0
aI5
aI7
aI10
aI11
aI15
aI17
aI19
aI20
aI22
aI25
aI28
aI30
aI33
aI36
aI37
aI39
aI42
aI45
aI46
aI46
aI46
aI47
aI48
aI50
aI52
aI52
aI52
aI52
aI53
aI56
aI56
aI57
aI58
aI60
aI61
aI61
aI64
aI65
aI66
aI67
aI68
aI69
aI71
aI72
aI75
aI77
aI78
aI79
aI81
aI82
aI82
aI84
aI86
aI87
aI89
aI89
aI90
aI92
aI93
aI94
aI97
aI97
aI98
aI99
aI101
aI101
aI102
aI102
aI103
aI104
aI104
aI105
aI105
aI105
aI107
aI107
aI109
aI111
aI111
aI111
aI112
aI114
aI115
aI116
aI118
aI118
aI119
aI120
aI123
aI124
aI125
aI125
aI125
aI126
aI126
aI126
aI126
aI127
aI127
aI128
aI128
aI129
aI130
aI131
aI131
aI131
aI131
aI133
aI134
aI135
aI136
aI137
aI138
asasS'FASTREAD_2'
p97
(lp98
(dp99
g6
(lp100
I0
aI10
aI20
aI30
aI40
aI50
aI60
aI70
aI80
aI90
aI100
aI110
aI120
aI130
aI140
aI150
aI160
aI170
aI180
aI190
aI200
aI210
aI220
aI230
aI240
aI250
aI260
aI270
aI280
aI290
aI300
aI310
aI320
aI330
aI340
aI350
aI360
aI370
aI380
aI390
aI400
aI410
aI420
aI430
aI440
aI450
aI460
aI470
aI480
aI490
aI500
aI510
aI520
aI530
aI540
aI550
aI560
aI570
aI580
aI590
aI600
aI610
aI620
aI630
aI640
aI650
aI660
aI670
aI680
aI690
aI700
aI710
aI720
aI730
aI740
aI750
aI760
aI770
aI780
aI790
aI800
aI810
aI820
aI830
aI840
aI850
aI860
aI870
aI880
aI890
aI900
aI910
aI920
aI930
aI940
aI950
aI960
aI970
aI980
aI990
aI1000
aI1010
aI1020
aI1030
aI1040
aI1050
aI1060
aI1070
aI1080
aI1090
aI1100
aI1110
aI1120
aI1130
aI1140
aI1150
aI1160
aI1170
aI1180
aI1190
aI1200
aI1210
aI1220
asg8
(lp101
I0
aI0
aI2
aI3
aI3
aI4
aI4
aI5
aI6
aI6
aI9
aI13
aI13
aI17
aI21
aI24
aI28
aI31
aI36
aI38
aI39
aI40
aI42
aI44
aI46
aI47
aI47
aI48
aI48
aI49
aI49
aI51
aI54
aI57
aI58
aI60
aI61
aI61
aI63
aI64
aI65
aI65
aI67
aI69
aI70
aI73
aI74
aI74
aI76
aI76
aI80
aI80
aI80
aI80
aI82
aI83
aI85
aI86
aI87
aI88
aI90
aI91
aI92
aI92
aI95
aI95
aI95
aI97
aI98
aI98
aI100
aI100
aI101
aI102
aI102
aI103
aI103
aI105
aI108
aI110
aI110
aI110
aI110
aI111
aI111
aI113
aI113
aI115
aI115
aI115
aI118
aI119
aI119
aI119
aI119
aI119
aI120
aI121
aI121
aI122
aI123
aI123
aI123
aI125
aI127
aI128
aI129
aI130
aI130
aI131
aI132
aI132
aI133
aI134
aI134
aI134
aI135
aI135
aI137
aI137
aI137
aI137
aI138
asa(dp102
g6
(lp103
I0
aI10
aI20
aI30
aI40
aI50
aI60
aI70
aI80
aI90
aI100
aI110
aI120
aI130
aI140
aI150
aI160
aI170
aI180
aI190
aI200
aI210
aI220
aI230
aI240
aI250
aI260
aI270
aI280
aI290
aI300
aI310
aI320
aI330
aI340
aI350
aI360
aI370
aI380
aI390
aI400
aI410
aI420
aI430
aI440
aI450
aI460
aI470
aI480
aI490
aI500
aI510
aI520
aI530
aI540
aI550
aI560
aI570
aI580
aI590
aI600
aI610
aI620
aI630
aI640
aI650
aI660
aI670
aI680
aI690
aI700
aI710
aI720
aI730
aI740
aI750
aI760
aI770
aI780
aI790
aI800
aI810
aI820
aI830
aI840
aI850
aI860
aI870
aI880
aI890
aI900
aI910
aI920
aI930
aI940
aI950
aI960
aI970
aI980
aI990
aI1000
aI1010
aI1020
aI1030
aI1040
aI1050
aI1060
aI1070
aI1080
aI1090
aI1100
aI1110
aI1120
aI1130
aI1140
aI1150
aI1160
aI1170
aI1180
aI1190
aI1200
aI1210
aI1220
aI1230
aI1240
aI1250
aI1260
aI1270
asg8
(lp104
I0
aI0
aI0
aI1
aI2
aI2
aI2
aI3
aI3
aI3
aI4
aI4
aI4
aI5
aI6
aI6
aI8
aI8
aI8
aI9
aI10
aI10
aI11
aI12
aI12
aI13
aI13
aI13
aI13
aI14
aI15
aI16
aI18
aI18
aI18
aI18
aI20
aI20
aI20
aI20
aI20
aI22
aI24
aI26
aI28
aI30
aI31
aI33
aI36
aI41
aI43
aI45
aI49
aI53
aI55
aI56
aI57
aI58
aI60
aI62
aI63
aI63
aI65
aI66
aI69
aI72
aI75
aI75
aI76
aI76
aI79
aI83
aI84
aI86
aI88
aI89
aI91
aI92
aI93
aI94
aI94
aI94
aI95
aI95
aI97
aI97
aI98
aI101
aI101
aI103
aI106
aI108
aI109
aI109
aI110
aI111
aI113
aI113
aI113
aI115
aI116
aI116
aI116
aI118
aI121
aI121
aI121
aI121
aI122
aI122
aI123
aI125
aI128
aI128
aI128
aI129
aI129
aI129
aI130
aI131
aI132
aI133
aI135
aI135
aI135
aI135
aI136
aI138
asa(dp105
g6
(lp106
I0
aI10
aI20
aI30
aI40
aI50
aI60
aI70
aI80
aI90
aI100
aI110
aI120
aI130
aI140
aI150
aI160
aI170
aI180
aI190
aI200
aI210
aI220
aI230
aI240
aI250
aI260
aI270
aI280
aI290
aI300
aI310
aI320
aI330
aI340
aI350
aI360
aI370
aI380
aI390
aI400
aI410
aI420
aI430
aI440
aI450
aI460
aI470
aI480
aI490
aI500
aI510
aI520
aI530
aI540
aI550
aI560
aI570
aI580
aI590
aI600
aI610
aI620
aI630
aI640
aI650
aI660
aI670
aI680
aI690
aI700
aI710
aI720
aI730
aI740
aI750
aI760
aI770
aI780
aI790
aI800
aI810
aI820
aI830
aI840
aI850
aI860
aI870
aI880
aI890
aI900
aI910
aI920
aI930
aI940
aI950
aI960
aI970
aI980
aI990
aI1000
aI1010
aI1020
aI1030
aI1040
aI1050
aI1060
aI1070
aI1080
aI1090
aI1100
aI1110
aI1120
aI1130
aI1140
aI1150
aI1160
aI1170
aI1180
aI1190
aI1200
aI1210
aI1220
aI1230
aI1240
aI1250
aI1260
aI1270
asg8
(lp107
I0
aI0
aI1
aI1
aI2
aI4
aI4
aI4
aI6
aI6
aI6
aI7
aI7
aI8
aI8
aI8
aI8
aI8
aI8
aI8
aI8
aI8
aI8
aI8
aI9
aI9
aI11
aI13
aI13
aI14
aI14
aI14
aI14
aI15
aI16
aI18
aI19
aI19
aI19
aI20
aI20
aI22
aI24
aI25
aI25
aI28
aI30
aI31
aI31
aI31
aI31
aI33
aI33
aI33
aI35
aI35
aI37
aI40
aI44
aI48
aI50
aI53
aI57
aI60
aI61
aI64
aI66
aI66
aI69
aI71
aI73
aI76
aI77
aI81
aI81
aI82
aI85
aI85
aI88
aI88
aI90
aI90
aI90
aI91
aI92
aI94
aI94
aI95
aI95
aI96
aI98
aI101
aI103
aI105
aI105
aI107
aI107
aI108
aI109
aI111
aI112
aI114
aI114
aI116
aI118
aI118
aI118
aI118
aI119
aI119
aI120
aI121
aI123
aI124
aI125
aI126
aI127
aI128
aI128
aI129
aI129
aI131
aI131
aI132
aI135
aI135
aI136
aI138
asa(dp108
g6
(lp109
I0
aI10
aI20
aI30
aI40
aI50
aI60
aI70
aI80
aI90
aI100
aI110
aI120
aI130
aI140
aI150
aI160
aI170
aI180
aI190
aI200
aI210
aI220
aI230
aI240
aI250
aI260
aI270
aI280
aI290
aI300
aI310
aI320
aI330
aI340
aI350
aI360
aI370
aI380
aI390
aI400
aI410
aI420
aI430
aI440
aI450
aI460
aI470
aI480
aI490
aI500
aI510
aI520
aI530
aI540
aI550
aI560
aI570
aI580
aI590
aI600
aI610
aI620
aI630
aI640
aI650
aI660
aI670
aI680
aI690
aI700
aI710
aI720
aI730
aI740
aI750
aI760
aI770
aI780
aI790
aI800
aI810
aI820
aI830
aI840
aI850
aI860
aI870
aI880
aI890
aI900
aI910
aI920
aI930
aI940
aI950
aI960
aI970
aI980
aI990
aI1000
aI1010
aI1020
aI1030
aI1040
aI1050
aI1060
aI1070
aI1080
aI1090
aI1100
aI1110
aI1120
aI1130
aI1140
aI1150
aI1160
aI1170
aI1180
aI1190
aI1200
aI1210
aI1220
aI1230
aI1240
aI1250
aI1260
asg8
(lp110
I0
aI2
aI5
aI6
aI6
aI6
aI7
aI8
aI9
aI9
aI10
aI12
aI12
aI13
aI13
aI15
aI16
aI17
aI17
aI17
aI18
aI18
aI18
aI19
aI19
aI23
aI24
aI25
aI25
aI26
aI26
aI26
aI27
aI28
aI30
aI33
aI35
aI36
aI38
aI41
aI47
aI48
aI48
aI51
aI52
aI55
aI57
aI61
aI61
aI61
aI62
aI65
aI67
aI69
aI69
aI71
aI72
aI74
aI75
aI77
aI78
aI83
aI85
aI86
aI88
aI89
aI91
aI93
aI96
aI98
aI99
aI99
aI100
aI100
aI100
aI102
aI102
aI104
aI105
aI107
aI109
aI110
aI112
aI113
aI115
aI116
aI117
aI118
aI118
aI118
aI119
aI120
aI121
aI121
aI121
aI122
aI122
aI123
aI123
aI124
aI125
aI125
aI125
aI125
aI125
aI125
aI125
aI125
aI125
aI125
aI125
aI126
aI129
aI131
aI131
aI131
aI131
aI132
aI133
aI134
aI134
aI135
aI135
aI135
aI136
aI136
aI138
asa(dp111
g6
(lp112
I0
aI10
aI20
aI30
aI40
aI50
aI60
aI70
aI80
aI90
aI100
aI110
aI120
aI130
aI140
aI150
aI160
aI170
aI180
aI190
aI200
aI210
aI220
aI230
aI240
aI250
aI260
aI270
aI280
aI290
aI300
aI310
aI320
aI330
aI340
aI350
aI360
aI370
aI380
aI390
aI400
aI410
aI420
aI430
aI440
aI450
aI460
aI470
aI480
aI490
aI500
aI510
aI520
aI530
aI540
aI550
aI560
aI570
aI580
aI590
aI600
aI610
aI620
aI630
aI640
aI650
aI660
aI670
aI680
aI690
aI700
aI710
aI720
aI730
aI740
aI750
aI760
aI770
aI780
aI790
aI800
aI810
aI820
aI830
aI840
aI850
aI860
aI870
aI880
aI890
aI900
aI910
aI920
aI930
aI940
aI950
aI960
aI970
aI980
aI990
aI1000
aI1010
aI1020
aI1030
aI1040
aI1050
aI1060
aI1070
aI1080
aI1090
aI1100
aI1110
aI1120
aI1130
aI1140
aI1150
aI1160
asg8
(lp113
I0
aI1
aI1
aI1
aI1
aI2
aI2
aI4
aI5
aI7
aI8
aI8
aI8
aI9
aI10
aI12
aI16
aI21
aI22
aI23
aI25
aI26
aI28
aI30
aI32
aI34
aI36
aI37
aI39
aI40
aI43
aI44
aI46
aI47
aI50
aI51
aI53
aI55
aI56
aI58
aI59
aI60
aI64
aI65
aI65
aI67
aI68
aI72
aI76
aI79
aI80
aI80
aI81
aI84
aI86
aI87
aI89
aI93
aI95
aI98
aI100
aI101
aI101
aI101
aI101
aI101
aI103
aI103
aI104
aI104
aI105
aI107
aI107
aI109
aI109
aI111
aI112
aI112
aI112
aI113
aI115
aI116
aI117
aI118
aI120
aI120
aI120
aI120
aI121
aI123
aI124
aI125
aI125
aI125
aI125
aI125
aI125
aI129
aI130
aI131
aI133
aI133
aI133
aI133
aI133
aI133
aI133
aI134
aI134
aI134
aI134
aI134
aI135
aI135
aI136
aI137
aI138
asa(dp114
g6
(lp115
I0
aI10
aI20
aI30
aI40
aI50
aI60
aI70
aI80
aI90
aI100
aI110
aI120
aI130
aI140
aI150
aI160
aI170
aI180
aI190
aI200
aI210
aI220
aI230
aI240
aI250
aI260
aI270
aI280
aI290
aI300
aI310
aI320
aI330
aI340
aI350
aI360
aI370
aI380
aI390
aI400
aI410
aI420
aI430
aI440
aI450
aI460
aI470
aI480
aI490
aI500
aI510
aI520
aI530
aI540
aI550
aI560
aI570
aI580
aI590
aI600
aI610
aI620
aI630
aI640
aI650
aI660
aI670
aI680
aI690
aI700
aI710
aI720
aI730
aI740
aI750
aI760
aI770
aI780
aI790
aI800
aI810
aI820
aI830
aI840
aI850
aI860
aI870
aI880
aI890
aI900
aI910
aI920
aI930
aI940
aI950
aI960
aI970
aI980
aI990
aI1000
aI1010
aI1020
aI1030
aI1040
aI1050
aI1060
aI1070
aI1080
aI1090
aI1100
aI1110
aI1120
aI1130
aI1140
aI1150
aI1160
aI1170
aI1180
aI1190
aI1200
aI1210
asg8
(lp116
I0
aI0
aI0
aI0
aI1
aI3
aI3
aI4
aI4
aI5
aI5
aI5
aI7
aI7
aI8
aI8
aI9
aI9
aI10
aI11
aI11
aI12
aI13
aI14
aI15
aI15
aI15
aI15
aI15
aI15
aI17
aI17
aI17
aI18
aI18
aI19
aI20
aI20
aI20
aI21
aI21
aI22
aI26
aI27
aI29
aI30
aI34
aI36
aI37
aI40
aI44
aI45
aI47
aI50
aI53
aI54
aI57
aI58
aI62
aI65
aI65
aI68
aI69
aI71
aI72
aI76
aI77
aI77
aI79
aI80
aI81
aI82
aI84
aI85
aI85
aI86
aI88
aI88
aI90
aI92
aI93
aI94
aI97
aI98
aI100
aI102
aI104
aI104
aI105
aI107
aI108
aI110
aI110
aI110
aI111
aI111
aI113
aI115
aI116
aI117
aI118
aI118
aI120
aI122
aI123
aI123
aI125
aI127
aI128
aI128
aI129
aI129
aI130
aI131
aI132
aI132
aI133
aI133
aI135
aI135
aI136
aI138
asa(dp117
g6
(lp118
I0
aI10
aI20
aI30
aI40
aI50
aI60
aI70
aI80
aI90
aI100
aI110
aI120
aI130
aI140
aI150
aI160
aI170
aI180
aI190
aI200
aI210
aI220
aI230
aI240
aI250
aI260
aI270
aI280
aI290
aI300
aI310
aI320
aI330
aI340
aI350
aI360
aI370
aI380
aI390
aI400
aI410
aI420
aI430
aI440
aI450
aI460
aI470
aI480
aI490
aI500
aI510
aI520
aI530
aI540
aI550
aI560
aI570
aI580
aI590
aI600
aI610
aI620
aI630
aI640
aI650
aI660
aI670
aI680
aI690
aI700
aI710
aI720
aI730
aI740
aI750
aI760
aI770
aI780
aI790
aI800
aI810
aI820
aI830
aI840
aI850
aI860
aI870
aI880
aI890
aI900
aI910
aI920
aI930
aI940
aI950
aI960
aI970
aI980
aI990
aI1000
aI1010
aI1020
aI1030
aI1040
aI1050
aI1060
aI1070
aI1080
aI1090
aI1100
aI1110
aI1120
aI1130
aI1140
aI1150
aI1160
aI1170
aI1180
aI1190
aI1200
aI1210
aI1220
aI1230
aI1240
aI1250
aI1260
aI1270
aI1280
aI1290
aI1300
aI1310
aI1320
aI1330
asg8
(lp119
I0
aI0
aI1
aI5
aI8
aI11
aI11
aI11
aI13
aI13
aI16
aI16
aI16
aI17
aI17
aI17
aI17
aI19
aI20
aI21
aI21
aI21
aI22
aI22
aI23
aI24
aI24
aI24
aI25
aI25
aI26
aI26
aI28
aI28
aI28
aI30
aI32
aI34
aI36
aI36
aI37
aI39
aI41
aI46
aI50
aI52
aI54
aI58
aI60
aI63
aI65
aI65
aI68
aI72
aI75
aI79
aI80
aI82
aI84
aI86
aI86
aI86
aI88
aI89
aI91
aI91
aI92
aI93
aI94
aI96
aI97
aI99
aI100
aI101
aI102
aI106
aI107
aI107
aI109
aI112
aI113
aI113
aI114
aI114
aI114
aI115
aI117
aI117
aI118
aI118
aI118
aI119
aI119
aI120
aI120
aI121
aI122
aI122
aI122
aI123
aI124
aI124
aI124
aI124
aI125
aI127
aI127
aI129
aI129
aI130
aI130
aI130
aI130
aI130
aI130
aI130
aI132
aI133
aI133
aI134
aI134
aI134
aI134
aI134
aI134
aI135
aI136
aI136
aI136
aI137
aI137
aI137
aI137
aI138
asa(dp120
g6
(lp121
I0
aI10
aI20
aI30
aI40
aI50
aI60
aI70
aI80
aI90
aI100
aI110
aI120
aI130
aI140
aI150
aI160
aI170
aI180
aI190
aI200
aI210
aI220
aI230
aI240
aI250
aI260
aI270
aI280
aI290
aI300
aI310
aI320
aI330
aI340
aI350
aI360
aI370
aI380
aI390
aI400
aI410
aI420
aI430
aI440
aI450
aI460
aI470
aI480
aI490
aI500
aI510
aI520
aI530
aI540
aI550
aI560
aI570
aI580
aI590
aI600
aI610
aI620
aI630
aI640
aI650
aI660
aI670
aI680
aI690
aI700
aI710
aI720
aI730
aI740
aI750
aI760
aI770
aI780
aI790
aI800
aI810
aI820
aI830
aI840
aI850
aI860
aI870
aI880
aI890
aI900
aI910
aI920
aI930
aI940
aI950
aI960
aI970
aI980
aI990
aI1000
aI1010
aI1020
aI1030
aI1040
aI1050
aI1060
aI1070
aI1080
aI1090
aI1100
aI1110
aI1120
aI1130
aI1140
aI1150
aI1160
aI1170
aI1180
aI1190
aI1200
aI1210
aI1220
aI1230
asg8
(lp122
I0
aI1
aI2
aI2
aI2
aI4
aI4
aI4
aI7
aI7
aI7
aI7
aI8
aI8
aI9
aI9
aI9
aI10
aI11
aI11
aI11
aI11
aI12
aI12
aI12
aI13
aI14
aI14
aI15
aI16
aI17
aI17
aI18
aI19
aI22
aI23
aI23
aI23
aI23
aI23
aI23
aI25
aI25
aI26
aI26
aI26
aI27
aI27
aI30
aI33
aI37
aI38
aI41
aI41
aI44
aI47
aI49
aI50
aI52
aI54
aI54
aI58
aI59
aI63
aI67
aI69
aI72
aI74
aI75
aI76
aI79
aI80
aI80
aI81
aI83
aI85
aI86
aI88
aI91
aI92
aI94
aI95
aI97
aI98
aI99
aI101
aI101
aI103
aI105
aI106
aI107
aI109
aI110
aI111
aI113
aI115
aI116
aI117
aI118
aI120
aI122
aI122
aI122
aI122
aI124
aI124
aI126
aI126
aI127
aI128
aI128
aI129
aI130
aI131
aI132
aI132
aI133
aI133
aI135
aI136
aI137
aI137
aI137
aI138
asa(dp123
g6
(lp124
I0
aI10
aI20
aI30
aI40
aI50
aI60
aI70
aI80
aI90
aI100
aI110
aI120
aI130
aI140
aI150
aI160
aI170
aI180
aI190
aI200
aI210
aI220
aI230
aI240
aI250
aI260
aI270
aI280
aI290
aI300
aI310
aI320
aI330
aI340
aI350
aI360
aI370
aI380
aI390
aI400
aI410
aI420
aI430
aI440
aI450
aI460
aI470
aI480
aI490
aI500
aI510
aI520
aI530
aI540
aI550
aI560
aI570
aI580
aI590
aI600
aI610
aI620
aI630
aI640
aI650
aI660
aI670
aI680
aI690
aI700
aI710
aI720
aI730
aI740
aI750
aI760
aI770
aI780
aI790
aI800
aI810
aI820
aI830
aI840
aI850
aI860
aI870
aI880
aI890
aI900
aI910
aI920
aI930
aI940
aI950
aI960
aI970
aI980
aI990
aI1000
aI1010
aI1020
aI1030
aI1040
aI1050
aI1060
aI1070
aI1080
aI1090
aI1100
aI1110
aI1120
aI1130
aI1140
aI1150
aI1160
aI1170
aI1180
asg8
(lp125
I0
aI1
aI3
aI4
aI4
aI4
aI4
aI4
aI4
aI5
aI6
aI7
aI7
aI8
aI9
aI9
aI9
aI10
aI10
aI12
aI12
aI17
aI18
aI21
aI23
aI24
aI26
aI28
aI28
aI28
aI28
aI32
aI33
aI34
aI38
aI39
aI40
aI42
aI45
aI45
aI45
aI47
aI49
aI53
aI54
aI54
aI55
aI57
aI59
aI61
aI64
aI66
aI66
aI66
aI68
aI72
aI73
aI75
aI76
aI78
aI79
aI83
aI85
aI86
aI88
aI88
aI88
aI90
aI91
aI94
aI96
aI99
aI99
aI101
aI102
aI104
aI104
aI106
aI108
aI111
aI111
aI113
aI114
aI114
aI114
aI115
aI115
aI115
aI116
aI119
aI119
aI119
aI119
aI119
aI120
aI121
aI122
aI123
aI126
aI128
aI130
aI131
aI132
aI132
aI132
aI133
aI133
aI133
aI133
aI133
aI133
aI133
aI133
aI135
aI136
aI136
aI136
aI137
aI138
asa(dp126
g6
(lp127
I0
aI10
aI20
aI30
aI40
aI50
aI60
aI70
aI80
aI90
aI100
aI110
aI120
aI130
aI140
aI150
aI160
aI170
aI180
aI190
aI200
aI210
aI220
aI230
aI240
aI250
aI260
aI270
aI280
aI290
aI300
aI310
aI320
aI330
aI340
aI350
aI360
aI370
aI380
aI390
aI400
aI410
aI420
aI430
aI440
aI450
aI460
aI470
aI480
aI490
aI500
aI510
aI520
aI530
aI540
aI550
aI560
aI570
aI580
aI590
aI600
aI610
aI620
aI630
aI640
aI650
aI660
aI670
aI680
aI690
aI700
aI710
aI720
aI730
aI740
aI750
aI760
aI770
aI780
aI790
aI800
aI810
aI820
aI830
aI840
aI850
aI860
aI870
aI880
aI890
aI900
aI910
aI920
aI930
aI940
aI950
aI960
aI970
aI980
aI990
aI1000
aI1010
aI1020
aI1030
aI1040
aI1050
aI1060
aI1070
aI1080
aI1090
aI1100
aI1110
aI1120
aI1130
aI1140
aI1150
aI1160
aI1170
aI1180
aI1190
aI1200
aI1210
aI1220
aI1230
aI1240
aI1250
aI1260
aI1270
asg8
(lp128
I0
aI1
aI2
aI2
aI3
aI5
aI6
aI8
aI9
aI10
aI10
aI10
aI12
aI13
aI13
aI13
aI13
aI14
aI15
aI16
aI16
aI16
aI16
aI16
aI16
aI17
aI18
aI19
aI19
aI20
aI20
aI20
aI20
aI23
aI25
aI25
aI28
aI32
aI36
aI41
aI43
aI46
aI48
aI52
aI53
aI55
aI58
aI59
aI61
aI63
aI66
aI67
aI69
aI70
aI71
aI72
aI72
aI75
aI77
aI77
aI78
aI80
aI81
aI81
aI81
aI83
aI83
aI83
aI85
aI86
aI86
aI88
aI90
aI93
aI94
aI94
aI96
aI97
aI99
aI102
aI103
aI105
aI107
aI109
aI110
aI111
aI112
aI112
aI112
aI112
aI114
aI116
aI117
aI117
aI117
aI117
aI118
aI120
aI121
aI122
aI122
aI124
aI124
aI125
aI126
aI128
aI130
aI131
aI131
aI131
aI131
aI132
aI134
aI134
aI134
aI135
aI135
aI135
aI135
aI135
aI136
aI136
aI136
aI136
aI137
aI137
aI137
aI138
asa(dp129
g6
(lp130
I0
aI10
aI20
aI30
aI40
aI50
aI60
aI70
aI80
aI90
aI100
aI110
aI120
aI130
aI140
aI150
aI160
aI170
aI180
aI190
aI200
aI210
aI220
aI230
aI240
aI250
aI260
aI270
aI280
aI290
aI300
aI310
aI320
aI330
aI340
aI350
aI360
aI370
aI380
aI390
aI400
aI410
aI420
aI430
aI440
aI450
aI460
aI470
aI480
aI490
aI500
aI510
aI520
aI530
aI540
aI550
aI560
aI570
aI580
aI590
aI600
aI610
aI620
aI630
aI640
aI650
aI660
aI670
aI680
aI690
aI700
aI710
aI720
aI730
aI740
aI750
aI760
aI770
aI780
aI790
aI800
aI810
aI820
aI830
aI840
aI850
aI860
aI870
aI880
aI890
aI900
aI910
aI920
aI930
aI940
aI950
aI960
aI970
aI980
aI990
aI1000
aI1010
aI1020
aI1030
aI1040
aI1050
aI1060
aI1070
aI1080
aI1090
aI1100
aI1110
aI1120
aI1130
aI1140
aI1150
aI1160
aI1170
aI1180
aI1190
aI1200
aI1210
aI1220
aI1230
aI1240
aI1250
asg8
(lp131
I0
aI1
aI3
aI7
aI9
aI9
aI10
aI10
aI11
aI11
aI11
aI13
aI13
aI14
aI15
aI15
aI16
aI16
aI16
aI16
aI17
aI20
aI20
aI22
aI22
aI23
aI23
aI23
aI23
aI23
aI23
aI24
aI26
aI27
aI28
aI28
aI29
aI30
aI34
aI36
aI36
aI38
aI40
aI42
aI44
aI48
aI49
aI51
aI54
aI57
aI59
aI63
aI65
aI66
aI67
aI68
aI71
aI73
aI74
aI75
aI76
aI77
aI79
aI80
aI80
aI83
aI84
aI88
aI90
aI91
aI93
aI95
aI97
aI98
aI100
aI101
aI103
aI103
aI104
aI104
aI104
aI104
aI105
aI106
aI107
aI109
aI110
aI110
aI111
aI112
aI113
aI113
aI113
aI114
aI116
aI117
aI117
aI119
aI121
aI123
aI123
aI124
aI126
aI126
aI128
aI128
aI128
aI128
aI129
aI130
aI130
aI131
aI131
aI131
aI131
aI131
aI131
aI132
aI132
aI133
aI135
aI135
aI135
aI136
aI137
aI138
asa(dp132
g6
(lp133
I0
aI10
aI20
aI30
aI40
aI50
aI60
aI70
aI80
aI90
aI100
aI110
aI120
aI130
aI140
aI150
aI160
aI170
aI180
aI190
aI200
aI210
aI220
aI230
aI240
aI250
aI260
aI270
aI280
aI290
aI300
aI310
aI320
aI330
aI340
aI350
aI360
aI370
aI380
aI390
aI400
aI410
aI420
aI430
aI440
aI450
aI460
aI470
aI480
aI490
aI500
aI510
aI520
aI530
aI540
aI550
aI560
aI570
aI580
aI590
aI600
aI610
aI620
aI630
aI640
aI650
aI660
aI670
aI680
aI690
aI700
aI710
aI720
aI730
aI740
aI750
aI760
aI770
aI780
aI790
aI800
aI810
aI820
aI830
aI840
aI850
aI860
aI870
aI880
aI890
aI900
aI910
aI920
aI930
aI940
aI950
aI960
aI970
aI980
aI990
aI1000
aI1010
aI1020
aI1030
aI1040
aI1050
aI1060
aI1070
aI1080
aI1090
aI1100
aI1110
aI1120
aI1130
aI1140
aI1150
aI1160
aI1170
aI1180
aI1190
aI1200
aI1210
aI1220
aI1230
aI1240
aI1250
aI1260
asg8
(lp134
I0
aI3
aI3
aI4
aI5
aI5
aI5
aI6
aI6
aI7
aI8
aI8
aI9
aI9
aI10
aI11
aI12
aI13
aI15
aI15
aI15
aI16
aI17
aI17
aI18
aI18
aI20
aI21
aI21
aI21
aI24
aI25
aI25
aI27
aI28
aI28
aI28
aI29
aI29
aI31
aI34
aI35
aI36
aI38
aI40
aI42
aI46
aI49
aI49
aI52
aI52
aI56
aI58
aI59
aI61
aI62
aI64
aI65
aI68
aI73
aI73
aI76
aI80
aI80
aI81
aI82
aI84
aI85
aI87
aI90
aI91
aI92
aI93
aI94
aI97
aI97
aI98
aI99
aI101
aI103
aI104
aI105
aI105
aI107
aI107
aI108
aI108
aI111
aI114
aI117
aI117
aI117
aI118
aI118
aI118
aI119
aI120
aI120
aI120
aI120
aI121
aI122
aI122
aI122
aI123
aI123
aI123
aI123
aI123
aI124
aI124
aI124
aI124
aI124
aI124
aI124
aI125
aI127
aI127
aI129
aI130
aI132
aI133
aI134
aI135
aI137
aI138
asa(dp135
g6
(lp136
I0
aI10
aI20
aI30
aI40
aI50
aI60
aI70
aI80
aI90
aI100
aI110
aI120
aI130
aI140
aI150
aI160
aI170
aI180
aI190
aI200
aI210
aI220
aI230
aI240
aI250
aI260
aI270
aI280
aI290
aI300
aI310
aI320
aI330
aI340
aI350
aI360
aI370
aI380
aI390
aI400
aI410
aI420
aI430
aI440
aI450
aI460
aI470
aI480
aI490
aI500
aI510
aI520
aI530
aI540
aI550
aI560
aI570
aI580
aI590
aI600
aI610
aI620
aI630
aI640
aI650
aI660
aI670
aI680
aI690
aI700
aI710
aI720
aI730
aI740
aI750
aI760
aI770
aI780
aI790
aI800
aI810
aI820
aI830
aI840
aI850
aI860
aI870
aI880
aI890
aI900
aI910
aI920
aI930
aI940
aI950
aI960
aI970
aI980
aI990
aI1000
aI1010
aI1020
aI1030
aI1040
aI1050
aI1060
aI1070
aI1080
aI1090
aI1100
aI1110
aI1120
aI1130
aI1140
asg8
(lp137
I0
aI0
aI4
aI4
aI7
aI8
aI10
aI11
aI11
aI11
aI11
aI13
aI15
aI16
aI18
aI19
aI22
aI24
aI24
aI25
aI25
aI27
aI27
aI28
aI30
aI30
aI31
aI33
aI34
aI34
aI36
aI37
aI39
aI45
aI47
aI47
aI50
aI53
aI53
aI57
aI62
aI64
aI65
aI68
aI72
aI74
aI76
aI78
aI79
aI81
aI81
aI82
aI84
aI86
aI89
aI89
aI90
aI90
aI90
aI90
aI91
aI91
aI93
aI94
aI95
aI97
aI99
aI101
aI102
aI105
aI105
aI107
aI108
aI109
aI110
aI111
aI113
aI113
aI113
aI115
aI115
aI115
aI115
aI116
aI117
aI117
aI117
aI117
aI117
aI118
aI118
aI118
aI118
aI119
aI119
aI120
aI123
aI124
aI124
aI125
aI128
aI129
aI130
aI131
aI132
aI133
aI134
aI134
aI134
aI134
aI135
aI137
aI137
aI137
aI138
asa(dp138
g6
(lp139
I0
aI10
aI20
aI30
aI40
aI50
aI60
aI70
aI80
aI90
aI100
aI110
aI120
aI130
aI140
aI150
aI160
aI170
aI180
aI190
aI200
aI210
aI220
aI230
aI240
aI250
aI260
aI270
aI280
aI290
aI300
aI310
aI320
aI330
aI340
aI350
aI360
aI370
aI380
aI390
aI400
aI410
aI420
aI430
aI440
aI450
aI460
aI470
aI480
aI490
aI500
aI510
aI520
aI530
aI540
aI550
aI560
aI570
aI580
aI590
aI600
aI610
aI620
aI630
aI640
aI650
aI660
aI670
aI680
aI690
aI700
aI710
aI720
aI730
aI740
aI750
aI760
aI770
aI780
aI790
aI800
aI810
aI820
aI830
aI840
aI850
aI860
aI870
aI880
aI890
aI900
aI910
aI920
aI930
aI940
aI950
aI960
aI970
aI980
aI990
aI1000
aI1010
aI1020
aI1030
aI1040
aI1050
aI1060
aI1070
aI1080
aI1090
aI1100
aI1110
aI1120
aI1130
aI1140
aI1150
aI1160
aI1170
asg8
(lp140
I0
aI1
aI3
aI6
aI6
aI6
aI7
aI7
aI7
aI8
aI8
aI8
aI8
aI8
aI8
aI9
aI9
aI10
aI13
aI13
aI14
aI14
aI15
aI17
aI17
aI18
aI19
aI19
aI20
aI20
aI20
aI22
aI24
aI26
aI27
aI29
aI29
aI30
aI32
aI34
aI36
aI39
aI41
aI43
aI44
aI44
aI47
aI51
aI53
aI55
aI59
aI61
aI63
aI66
aI67
aI69
aI69
aI72
aI73
aI75
aI76
aI80
aI81
aI83
aI84
aI86
aI88
aI89
aI90
aI90
aI93
aI93
aI94
aI96
aI96
aI97
aI98
aI99
aI100
aI100
aI104
aI106
aI108
aI109
aI111
aI112
aI113
aI115
aI117
aI119
aI119
aI120
aI120
aI120
aI121
aI122
aI123
aI123
aI124
aI124
aI125
aI126
aI127
aI127
aI128
aI130
aI130
aI131
aI133
aI133
aI133
aI133
aI135
aI135
aI135
aI135
aI135
aI138
asa(dp141
g6
(lp142
I0
aI10
aI20
aI30
aI40
aI50
aI60
aI70
aI80
aI90
aI100
aI110
aI120
aI130
aI140
aI150
aI160
aI170
aI180
aI190
aI200
aI210
aI220
aI230
aI240
aI250
aI260
aI270
aI280
aI290
aI300
aI310
aI320
aI330
aI340
aI350
aI360
aI370
aI380
aI390
aI400
aI410
aI420
aI430
aI440
aI450
aI460
aI470
aI480
aI490
aI500
aI510
aI520
aI530
aI540
aI550
aI560
aI570
aI580
aI590
aI600
aI610
aI620
aI630
aI640
aI650
aI660
aI670
aI680
aI690
aI700
aI710
aI720
aI730
aI740
aI750
aI760
aI770
aI780
aI790
aI800
aI810
aI820
aI830
aI840
aI850
aI860
aI870
aI880
aI890
aI900
aI910
aI920
aI930
aI940
aI950
aI960
aI970
aI980
aI990
aI1000
aI1010
aI1020
aI1030
aI1040
aI1050
aI1060
aI1070
aI1080
aI1090
aI1100
aI1110
aI1120
aI1130
aI1140
aI1150
aI1160
aI1170
aI1180
aI1190
aI1200
aI1210
aI1220
aI1230
aI1240
asg8
(lp143
I0
aI0
aI0
aI1
aI3
aI3
aI4
aI4
aI4
aI5
aI6
aI7
aI8
aI9
aI10
aI10
aI10
aI10
aI11
aI11
aI12
aI12
aI13
aI15
aI16
aI17
aI17
aI18
aI18
aI19
aI19
aI22
aI24
aI27
aI30
aI30
aI31
aI33
aI35
aI35
aI36
aI36
aI39
aI41
aI43
aI45
aI46
aI47
aI48
aI49
aI50
aI51
aI53
aI54
aI58
aI58
aI61
aI63
aI69
aI72
aI74
aI76
aI79
aI81
aI83
aI85
aI87
aI93
aI94
aI97
aI98
aI99
aI102
aI104
aI105
aI108
aI108
aI108
aI109
aI109
aI112
aI114
aI114
aI115
aI115
aI115
aI116
aI118
aI118
aI119
aI119
aI120
aI121
aI121
aI122
aI125
aI126
aI126
aI126
aI126
aI127
aI127
aI127
aI127
aI128
aI128
aI128
aI129
aI130
aI131
aI132
aI134
aI134
aI136
aI136
aI136
aI136
aI136
aI136
aI136
aI137
aI137
aI137
aI137
aI138
asa(dp144
g6
(lp145
I0
aI10
aI20
aI30
aI40
aI50
aI60
aI70
aI80
aI90
aI100
aI110
aI120
aI130
aI140
aI150
aI160
aI170
aI180
aI190
aI200
aI210
aI220
aI230
aI240
aI250
aI260
aI270
aI280
aI290
aI300
aI310
aI320
aI330
aI340
aI350
aI360
aI370
aI380
aI390
aI400
aI410
aI420
aI430
aI440
aI450
aI460
aI470
aI480
aI490
aI500
aI510
aI520
aI530
aI540
aI550
aI560
aI570
aI580
aI590
aI600
aI610
aI620
aI630
aI640
aI650
aI660
aI670
aI680
aI690
aI700
aI710
aI720
aI730
aI740
aI750
aI760
aI770
aI780
aI790
aI800
aI810
aI820
aI830
aI840
aI850
aI860
aI870
aI880
aI890
aI900
aI910
aI920
aI930
aI940
aI950
aI960
aI970
aI980
aI990
aI1000
aI1010
aI1020
aI1030
aI1040
aI1050
aI1060
aI1070
aI1080
aI1090
aI1100
aI1110
aI1120
asg8
(lp146
I0
aI2
aI2
aI3
aI5
aI5
aI7
aI8
aI10
aI12
aI16
aI19
aI24
aI28
aI30
aI31
aI35
aI37
aI38
aI40
aI42
aI44
aI48
aI49
aI51
aI54
aI56
aI58
aI60
aI60
aI62
aI64
aI65
aI65
aI65
aI66
aI68
aI69
aI71
aI73
aI74
aI75
aI76
aI77
aI79
aI79
aI80
aI81
aI81
aI83
aI83
aI83
aI84
aI86
aI87
aI89
aI91
aI93
aI95
aI97
aI98
aI99
aI99
aI99
aI99
aI101
aI101
aI101
aI101
aI102
aI103
aI104
aI104
aI106
aI107
aI109
aI109
aI110
aI110
aI112
aI112
aI113
aI114
aI116
aI117
aI119
aI119
aI121
aI122
aI123
aI125
aI126
aI126
aI128
aI131
aI131
aI132
aI133
aI133
aI134
aI134
aI134
aI134
aI134
aI134
aI134
aI134
aI136
aI136
aI136
aI136
aI137
aI138
asa(dp147
g6
(lp148
I0
aI10
aI20
aI30
aI40
aI50
aI60
aI70
aI80
aI90
aI100
aI110
aI120
aI130
aI140
aI150
aI160
aI170
aI180
aI190
aI200
aI210
aI220
aI230
aI240
aI250
aI260
aI270
aI280
aI290
aI300
aI310
aI320
aI330
aI340
aI350
aI360
aI370
aI380
aI390
aI400
aI410
aI420
aI430
aI440
aI450
aI460
aI470
aI480
aI490
aI500
aI510
aI520
aI530
aI540
aI550
aI560
aI570
aI580
aI590
aI600
aI610
aI620
aI630
aI640
aI650
aI660
aI670
aI680
aI690
aI700
aI710
aI720
aI730
aI740
aI750
aI760
aI770
aI780
aI790
aI800
aI810
aI820
aI830
aI840
aI850
aI860
aI870
aI880
aI890
aI900
aI910
aI920
aI930
aI940
aI950
aI960
aI970
aI980
aI990
aI1000
aI1010
aI1020
aI1030
aI1040
aI1050
aI1060
aI1070
aI1080
aI1090
aI1100
aI1110
aI1120
aI1130
aI1140
aI1150
aI1160
aI1170
aI1180
aI1190
aI1200
aI1210
aI1220
aI1230
aI1240
aI1250
aI1260
aI1270
aI1280
aI1290
aI1300
aI1310
aI1320
aI1330
aI1340
aI1350
aI1360
asg8
(lp149
I0
aI2
aI2
aI2
aI5
aI5
aI5
aI5
aI5
aI5
aI7
aI8
aI9
aI9
aI10
aI10
aI11
aI11
aI11
aI11
aI12
aI13
aI13
aI13
aI13
aI15
aI15
aI15
aI15
aI16
aI17
aI18
aI19
aI19
aI19
aI20
aI20
aI20
aI20
aI20
aI21
aI21
aI21
aI21
aI22
aI23
aI24
aI24
aI24
aI24
aI24
aI24
aI24
aI24
aI25
aI27
aI28
aI29
aI29
aI30
aI31
aI33
aI34
aI36
aI40
aI44
aI47
aI51
aI55
aI55
aI56
aI57
aI58
aI60
aI61
aI63
aI66
aI68
aI71
aI74
aI76
aI77
aI78
aI81
aI83
aI85
aI85
aI85
aI85
aI88
aI91
aI92
aI93
aI96
aI100
aI101
aI102
aI104
aI108
aI109
aI109
aI109
aI110
aI110
aI111
aI112
aI113
aI113
aI114
aI114
aI116
aI116
aI118
aI118
aI119
aI121
aI122
aI122
aI122
aI122
aI123
aI125
aI127
aI128
aI129
aI130
aI130
aI131
aI131
aI132
aI132
aI132
aI134
aI134
aI135
aI137
aI138
asa(dp150
g6
(lp151
I0
aI10
aI20
aI30
aI40
aI50
aI60
aI70
aI80
aI90
aI100
aI110
aI120
aI130
aI140
aI150
aI160
aI170
aI180
aI190
aI200
aI210
aI220
aI230
aI240
aI250
aI260
aI270
aI280
aI290
aI300
aI310
aI320
aI330
aI340
aI350
aI360
aI370
aI380
aI390
aI400
aI410
aI420
aI430
aI440
aI450
aI460
aI470
aI480
aI490
aI500
aI510
aI520
aI530
aI540
aI550
aI560
aI570
aI580
aI590
aI600
aI610
aI620
aI630
aI640
aI650
aI660
aI670
aI680
aI690
aI700
aI710
aI720
aI730
aI740
aI750
aI760
aI770
aI780
aI790
aI800
aI810
aI820
aI830
aI840
aI850
aI860
aI870
aI880
aI890
aI900
aI910
aI920
aI930
aI940
aI950
aI960
aI970
aI980
aI990
aI1000
aI1010
aI1020
aI1030
aI1040
aI1050
aI1060
aI1070
aI1080
aI1090
aI1100
aI1110
asg8
(lp152
I0
aI0
aI1
aI2
aI2
aI2
aI3
aI3
aI3
aI5
aI5
aI7
aI8
aI11
aI15
aI18
aI20
aI23
aI24
aI27
aI30
aI30
aI31
aI32
aI32
aI33
aI33
aI34
aI35
aI38
aI40
aI41
aI44
aI44
aI47
aI49
aI52
aI54
aI56
aI59
aI64
aI68
aI71
aI73
aI75
aI75
aI75
aI75
aI77
aI79
aI80
aI82
aI84
aI88
aI88
aI91
aI93
aI93
aI94
aI95
aI95
aI96
aI97
aI99
aI99
aI100
aI100
aI101
aI102
aI103
aI103
aI104
aI104
aI104
aI105
aI106
aI108
aI109
aI109
aI109
aI109
aI109
aI110
aI112
aI112
aI114
aI114
aI116
aI116
aI117
aI117
aI118
aI119
aI119
aI119
aI120
aI123
aI123
aI124
aI125
aI127
aI128
aI129
aI130
aI132
aI135
aI135
aI135
aI136
aI137
aI137
aI138
asa(dp153
g6
(lp154
I0
aI10
aI20
aI30
aI40
aI50
aI60
aI70
aI80
aI90
aI100
aI110
aI120
aI130
aI140
aI150
aI160
aI170
aI180
aI190
aI200
aI210
aI220
aI230
aI240
aI250
aI260
aI270
aI280
aI290
aI300
aI310
aI320
aI330
aI340
aI350
aI360
aI370
aI380
aI390
aI400
aI410
aI420
aI430
aI440
aI450
aI460
aI470
aI480
aI490
aI500
aI510
aI520
aI530
aI540
aI550
aI560
aI570
aI580
aI590
aI600
aI610
aI620
aI630
aI640
aI650
aI660
aI670
aI680
aI690
aI700
aI710
aI720
aI730
aI740
aI750
aI760
aI770
aI780
aI790
aI800
aI810
aI820
aI830
aI840
aI850
aI860
aI870
aI880
aI890
aI900
aI910
aI920
aI930
aI940
aI950
aI960
aI970
aI980
aI990
aI1000
aI1010
aI1020
aI1030
aI1040
aI1050
aI1060
aI1070
aI1080
aI1090
aI1100
aI1110
aI1120
aI1130
aI1140
aI1150
aI1160
aI1170
aI1180
aI1190
aI1200
aI1210
asg8
(lp155
I0
aI0
aI1
aI1
aI1
aI2
aI3
aI6
aI7
aI7
aI7
aI7
aI7
aI7
aI8
aI9
aI10
aI10
aI10
aI11
aI11
aI12
aI12
aI13
aI13
aI13
aI13
aI14
aI15
aI15
aI18
aI18
aI20
aI23
aI23
aI24
aI24
aI25
aI26
aI28
aI29
aI32
aI33
aI35
aI36
aI38
aI40
aI42
aI42
aI44
aI48
aI50
aI54
aI55
aI55
aI57
aI59
aI60
aI62
aI62
aI64
aI68
aI72
aI73
aI74
aI76
aI79
aI79
aI85
aI88
aI90
aI91
aI91
aI95
aI98
aI98
aI99
aI100
aI101
aI103
aI104
aI105
aI107
aI108
aI109
aI110
aI110
aI112
aI113
aI113
aI114
aI116
aI117
aI118
aI118
aI119
aI119
aI121
aI122
aI124
aI124
aI125
aI126
aI129
aI129
aI129
aI129
aI130
aI131
aI131
aI131
aI132
aI132
aI133
aI133
aI133
aI133
aI134
aI134
aI136
aI137
aI139
asa(dp156
g6
(lp157
I0
aI10
aI20
aI30
aI40
aI50
aI60
aI70
aI80
aI90
aI100
aI110
aI120
aI130
aI140
aI150
aI160
aI170
aI180
aI190
aI200
aI210
aI220
aI230
aI240
aI250
aI260
aI270
aI280
aI290
aI300
aI310
aI320
aI330
aI340
aI350
aI360
aI370
aI380
aI390
aI400
aI410
aI420
aI430
aI440
aI450
aI460
aI470
aI480
aI490
aI500
aI510
aI520
aI530
aI540
aI550
aI560
aI570
aI580
aI590
aI600
aI610
aI620
aI630
aI640
aI650
aI660
aI670
aI680
aI690
aI700
aI710
aI720
aI730
aI740
aI750
aI760
aI770
aI780
aI790
aI800
aI810
aI820
aI830
aI840
aI850
aI860
aI870
aI880
aI890
aI900
aI910
aI920
aI930
aI940
aI950
aI960
aI970
aI980
aI990
aI1000
aI1010
aI1020
aI1030
aI1040
aI1050
aI1060
aI1070
aI1080
aI1090
aI1100
aI1110
aI1120
aI1130
aI1140
asg8
(lp158
I0
aI3
aI3
aI4
aI6
aI7
aI8
aI10
aI11
aI11
aI11
aI11
aI12
aI15
aI16
aI19
aI20
aI22
aI24
aI27
aI29
aI31
aI33
aI34
aI38
aI40
aI44
aI44
aI45
aI45
aI49
aI52
aI56
aI56
aI58
aI58
aI60
aI61
aI61
aI62
aI65
aI65
aI66
aI68
aI69
aI72
aI73
aI73
aI75
aI77
aI77
aI78
aI80
aI81
aI82
aI84
aI88
aI88
aI88
aI89
aI90
aI93
aI93
aI95
aI99
aI99
aI99
aI101
aI102
aI103
aI104
aI105
aI106
aI107
aI109
aI112
aI112
aI113
aI113
aI113
aI115
aI115
aI115
aI115
aI116
aI118
aI120
aI121
aI122
aI126
aI127
aI128
aI128
aI128
aI128
aI128
aI129
aI130
aI130
aI132
aI132
aI133
aI134
aI135
aI135
aI135
aI135
aI136
aI136
aI136
aI136
aI136
aI136
aI136
aI139
asa(dp159
g6
(lp160
I0
aI10
aI20
aI30
aI40
aI50
aI60
aI70
aI80
aI90
aI100
aI110
aI120
aI130
aI140
aI150
aI160
aI170
aI180
aI190
aI200
aI210
aI220
aI230
aI240
aI250
aI260
aI270
aI280
aI290
aI300
aI310
aI320
aI330
aI340
aI350
aI360
aI370
aI380
aI390
aI400
aI410
aI420
aI430
aI440
aI450
aI460
aI470
aI480
aI490
aI500
aI510
aI520
aI530
aI540
aI550
aI560
aI570
aI580
aI590
aI600
aI610
aI620
aI630
aI640
aI650
aI660
aI670
aI680
aI690
aI700
aI710
aI720
aI730
aI740
aI750
aI760
aI770
aI780
aI790
aI800
aI810
aI820
aI830
aI840
aI850
aI860
aI870
aI880
aI890
aI900
aI910
aI920
aI930
aI940
aI950
aI960
aI970
aI980
aI990
aI1000
aI1010
aI1020
aI1030
aI1040
aI1050
aI1060
aI1070
aI1080
aI1090
aI1100
aI1110
aI1120
aI1130
aI1140
aI1150
aI1160
aI1170
aI1180
aI1190
aI1200
aI1210
aI1220
aI1230
aI1240
aI1250
asg8
(lp161
I0
aI2
aI4
aI4
aI7
aI7
aI7
aI10
aI14
aI18
aI21
aI25
aI28
aI29
aI32
aI34
aI38
aI41
aI45
aI45
aI47
aI49
aI51
aI53
aI54
aI57
aI57
aI58
aI59
aI59
aI60
aI61
aI62
aI65
aI65
aI68
aI70
aI71
aI72
aI73
aI73
aI73
aI77
aI78
aI78
aI80
aI82
aI88
aI90
aI91
aI92
aI94
aI95
aI95
aI95
aI95
aI95
aI95
aI96
aI97
aI98
aI99
aI100
aI101
aI101
aI101
aI102
aI102
aI103
aI105
aI106
aI106
aI106
aI106
aI108
aI110
aI111
aI112
aI113
aI113
aI114
aI116
aI117
aI118
aI118
aI119
aI119
aI119
aI119
aI119
aI119
aI119
aI119
aI119
aI120
aI121
aI123
aI126
aI127
aI129
aI130
aI130
aI130
aI131
aI131
aI131
aI131
aI132
aI132
aI133
aI133
aI133
aI134
aI135
aI135
aI136
aI136
aI137
aI137
aI137
aI137
aI137
aI137
aI137
aI137
aI139
asa(dp162
g6
(lp163
I0
aI10
aI20
aI30
aI40
aI50
aI60
aI70
aI80
aI90
aI100
aI110
aI120
aI130
aI140
aI150
aI160
aI170
aI180
aI190
aI200
aI210
aI220
aI230
aI240
aI250
aI260
aI270
aI280
aI290
aI300
aI310
aI320
aI330
aI340
aI350
aI360
aI370
aI380
aI390
aI400
aI410
aI420
aI430
aI440
aI450
aI460
aI470
aI480
aI490
aI500
aI510
aI520
aI530
aI540
aI550
aI560
aI570
aI580
aI590
aI600
aI610
aI620
aI630
aI640
aI650
aI660
aI670
aI680
aI690
aI700
aI710
aI720
aI730
aI740
aI750
aI760
aI770
aI780
aI790
aI800
aI810
aI820
aI830
aI840
aI850
aI860
aI870
aI880
aI890
aI900
aI910
aI920
aI930
aI940
aI950
aI960
aI970
aI980
aI990
aI1000
aI1010
aI1020
aI1030
aI1040
aI1050
aI1060
aI1070
aI1080
aI1090
aI1100
aI1110
aI1120
aI1130
aI1140
aI1150
aI1160
aI1170
aI1180
asg8
(lp164
I0
aI0
aI1
aI1
aI2
aI4
aI5
aI5
aI5
aI5
aI7
aI9
aI9
aI9
aI10
aI10
aI10
aI11
aI11
aI11
aI12
aI14
aI16
aI16
aI17
aI17
aI17
aI18
aI19
aI21
aI23
aI23
aI23
aI23
aI23
aI23
aI24
aI24
aI24
aI27
aI28
aI28
aI28
aI31
aI34
aI35
aI38
aI40
aI42
aI47
aI48
aI52
aI55
aI56
aI58
aI61
aI62
aI63
aI66
aI67
aI68
aI70
aI72
aI74
aI75
aI75
aI76
aI79
aI81
aI83
aI84
aI84
aI86
aI88
aI89
aI90
aI91
aI94
aI96
aI97
aI99
aI99
aI101
aI102
aI104
aI104
aI106
aI106
aI107
aI109
aI110
aI112
aI113
aI113
aI113
aI115
aI116
aI117
aI118
aI119
aI120
aI124
aI124
aI124
aI125
aI125
aI126
aI127
aI127
aI127
aI128
aI129
aI130
aI131
aI135
aI137
aI137
aI137
aI139
asa(dp165
g6
(lp166
I0
aI10
aI20
aI30
aI40
aI50
aI60
aI70
aI80
aI90
aI100
aI110
aI120
aI130
aI140
aI150
aI160
aI170
aI180
aI190
aI200
aI210
aI220
aI230
aI240
aI250
aI260
aI270
aI280
aI290
aI300
aI310
aI320
aI330
aI340
aI350
aI360
aI370
aI380
aI390
aI400
aI410
aI420
aI430
aI440
aI450
aI460
aI470
aI480
aI490
aI500
aI510
aI520
aI530
aI540
aI550
aI560
aI570
aI580
aI590
aI600
aI610
aI620
aI630
aI640
aI650
aI660
aI670
aI680
aI690
aI700
aI710
aI720
aI730
aI740
aI750
aI760
aI770
aI780
aI790
aI800
aI810
aI820
aI830
aI840
aI850
aI860
aI870
aI880
aI890
aI900
aI910
aI920
aI930
aI940
aI950
aI960
aI970
aI980
aI990
aI1000
aI1010
aI1020
aI1030
aI1040
aI1050
aI1060
aI1070
aI1080
aI1090
aI1100
aI1110
aI1120
aI1130
aI1140
aI1150
aI1160
asg8
(lp167
I0
aI0
aI2
aI3
aI4
aI5
aI8
aI9
aI10
aI11
aI11
aI12
aI12
aI12
aI12
aI12
aI12
aI13
aI14
aI14
aI18
aI22
aI23
aI28
aI31
aI32
aI33
aI34
aI34
aI34
aI36
aI37
aI38
aI39
aI41
aI43
aI44
aI45
aI46
aI50
aI51
aI52
aI55
aI55
aI56
aI58
aI59
aI60
aI66
aI68
aI71
aI75
aI78
aI80
aI84
aI84
aI85
aI85
aI87
aI89
aI89
aI89
aI90
aI91
aI92
aI94
aI97
aI99
aI102
aI104
aI106
aI108
aI108
aI108
aI108
aI110
aI110
aI111
aI112
aI112
aI113
aI113
aI113
aI114
aI114
aI115
aI115
aI115
aI115
aI115
aI115
aI116
aI116
aI116
aI116
aI116
aI116
aI117
aI118
aI119
aI119
aI121
aI122
aI125
aI125
aI125
aI125
aI125
aI125
aI126
aI129
aI131
aI132
aI134
aI135
aI137
aI138
asa(dp168
g6
(lp169
I0
aI10
aI20
aI30
aI40
aI50
aI60
aI70
aI80
aI90
aI100
aI110
aI120
aI130
aI140
aI150
aI160
aI170
aI180
aI190
aI200
aI210
aI220
aI230
aI240
aI250
aI260
aI270
aI280
aI290
aI300
aI310
aI320
aI330
aI340
aI350
aI360
aI370
aI380
aI390
aI400
aI410
aI420
aI430
aI440
aI450
aI460
aI470
aI480
aI490
aI500
aI510
aI520
aI530
aI540
aI550
aI560
aI570
aI580
aI590
aI600
aI610
aI620
aI630
aI640
aI650
aI660
aI670
aI680
aI690
aI700
aI710
aI720
aI730
aI740
aI750
aI760
aI770
aI780
aI790
aI800
aI810
aI820
aI830
aI840
aI850
aI860
aI870
aI880
aI890
aI900
aI910
aI920
aI930
aI940
aI950
aI960
aI970
aI980
aI990
aI1000
aI1010
aI1020
aI1030
aI1040
aI1050
aI1060
aI1070
aI1080
aI1090
aI1100
aI1110
aI1120
aI1130
aI1140
aI1150
aI1160
aI1170
aI1180
aI1190
aI1200
aI1210
aI1220
aI1230
aI1240
aI1250
aI1260
aI1270
aI1280
aI1290
aI1300
aI1310
asg8
(lp170
I0
aI0
aI0
aI2
aI4
aI4
aI5
aI6
aI7
aI8
aI9
aI10
aI10
aI12
aI12
aI12
aI12
aI13
aI13
aI13
aI13
aI13
aI13
aI13
aI13
aI13
aI15
aI16
aI16
aI16
aI16
aI16
aI18
aI18
aI18
aI23
aI26
aI28
aI31
aI32
aI34
aI37
aI39
aI40
aI43
aI47
aI49
aI51
aI51
aI55
aI56
aI59
aI61
aI63
aI67
aI68
aI70
aI70
aI71
aI72
aI74
aI75
aI79
aI82
aI82
aI82
aI84
aI84
aI84
aI84
aI85
aI86
aI88
aI89
aI89
aI90
aI92
aI93
aI95
aI96
aI97
aI99
aI100
aI100
aI102
aI104
aI106
aI107
aI108
aI109
aI109
aI110
aI110
aI111
aI111
aI111
aI112
aI114
aI116
aI116
aI117
aI117
aI119
aI121
aI121
aI123
aI125
aI126
aI126
aI127
aI127
aI128
aI128
aI128
aI131
aI131
aI132
aI133
aI133
aI134
aI134
aI134
aI134
aI134
aI134
aI134
aI134
aI136
aI137
aI137
aI137
aI139
asa(dp171
g6
(lp172
I0
aI10
aI20
aI30
aI40
aI50
aI60
aI70
aI80
aI90
aI100
aI110
aI120
aI130
aI140
aI150
aI160
aI170
aI180
aI190
aI200
aI210
aI220
aI230
aI240
aI250
aI260
aI270
aI280
aI290
aI300
aI310
aI320
aI330
aI340
aI350
aI360
aI370
aI380
aI390
aI400
aI410
aI420
aI430
aI440
aI450
aI460
aI470
aI480
aI490
aI500
aI510
aI520
aI530
aI540
aI550
aI560
aI570
aI580
aI590
aI600
aI610
aI620
aI630
aI640
aI650
aI660
aI670
aI680
aI690
aI700
aI710
aI720
aI730
aI740
aI750
aI760
aI770
aI780
aI790
aI800
aI810
aI820
aI830
aI840
aI850
aI860
aI870
aI880
aI890
aI900
aI910
aI920
aI930
aI940
aI950
aI960
aI970
aI980
aI990
aI1000
aI1010
aI1020
aI1030
aI1040
aI1050
aI1060
aI1070
aI1080
aI1090
aI1100
aI1110
aI1120
aI1130
aI1140
aI1150
aI1160
aI1170
aI1180
aI1190
aI1200
asg8
(lp173
I0
aI0
aI1
aI2
aI2
aI2
aI3
aI4
aI4
aI4
aI6
aI7
aI7
aI8
aI8
aI8
aI8
aI9
aI11
aI11
aI13
aI16
aI16
aI17
aI17
aI18
aI19
aI21
aI21
aI21
aI21
aI22
aI23
aI24
aI25
aI26
aI26
aI28
aI29
aI30
aI30
aI33
aI35
aI39
aI39
aI41
aI42
aI42
aI46
aI49
aI52
aI56
aI56
aI61
aI65
aI66
aI69
aI70
aI72
aI72
aI74
aI76
aI76
aI79
aI83
aI83
aI85
aI86
aI88
aI92
aI93
aI94
aI94
aI95
aI97
aI98
aI99
aI104
aI107
aI107
aI109
aI111
aI111
aI114
aI115
aI116
aI117
aI118
aI119
aI120
aI121
aI123
aI123
aI124
aI125
aI126
aI126
aI126
aI126
aI126
aI126
aI126
aI126
aI127
aI127
aI127
aI127
aI127
aI127
aI128
aI129
aI129
aI132
aI132
aI132
aI133
aI133
aI136
aI136
aI137
aI138
asa(dp174
g6
(lp175
I0
aI10
aI20
aI30
aI40
aI50
aI60
aI70
aI80
aI90
aI100
aI110
aI120
aI130
aI140
aI150
aI160
aI170
aI180
aI190
aI200
aI210
aI220
aI230
aI240
aI250
aI260
aI270
aI280
aI290
aI300
aI310
aI320
aI330
aI340
aI350
aI360
aI370
aI380
aI390
aI400
aI410
aI420
aI430
aI440
aI450
aI460
aI470
aI480
aI490
aI500
aI510
aI520
aI530
aI540
aI550
aI560
aI570
aI580
aI590
aI600
aI610
aI620
aI630
aI640
aI650
aI660
aI670
aI680
aI690
aI700
aI710
aI720
aI730
aI740
aI750
aI760
aI770
aI780
aI790
aI800
aI810
aI820
aI830
aI840
aI850
aI860
aI870
aI880
aI890
aI900
aI910
aI920
aI930
aI940
aI950
aI960
aI970
aI980
aI990
aI1000
aI1010
aI1020
aI1030
aI1040
aI1050
aI1060
aI1070
aI1080
aI1090
aI1100
aI1110
aI1120
aI1130
aI1140
aI1150
aI1160
aI1170
aI1180
aI1190
aI1200
aI1210
aI1220
aI1230
asg8
(lp176
I0
aI0
aI1
aI1
aI1
aI2
aI5
aI5
aI6
aI7
aI7
aI7
aI7
aI8
aI8
aI9
aI10
aI11
aI11
aI11
aI13
aI16
aI17
aI17
aI17
aI17
aI17
aI17
aI17
aI17
aI17
aI17
aI17
aI17
aI18
aI18
aI19
aI20
aI20
aI20
aI21
aI22
aI22
aI24
aI25
aI26
aI27
aI27
aI28
aI28
aI30
aI33
aI35
aI37
aI40
aI41
aI42
aI43
aI44
aI48
aI50
aI52
aI54
aI56
aI58
aI60
aI62
aI65
aI65
aI70
aI71
aI75
aI77
aI78
aI81
aI81
aI82
aI82
aI83
aI84
aI86
aI89
aI90
aI92
aI94
aI95
aI97
aI98
aI99
aI99
aI103
aI104
aI105
aI106
aI106
aI108
aI110
aI113
aI115
aI117
aI118
aI118
aI119
aI121
aI121
aI121
aI123
aI125
aI128
aI130
aI130
aI130
aI132
aI133
aI133
aI134
aI135
aI136
aI136
aI136
aI136
aI137
aI137
aI139
asa(dp177
g6
(lp178
I0
aI10
aI20
aI30
aI40
aI50
aI60
aI70
aI80
aI90
aI100
aI110
aI120
aI130
aI140
aI150
aI160
aI170
aI180
aI190
aI200
aI210
aI220
aI230
aI240
aI250
aI260
aI270
aI280
aI290
aI300
aI310
aI320
aI330
aI340
aI350
aI360
aI370
aI380
aI390
aI400
aI410
aI420
aI430
aI440
aI450
aI460
aI470
aI480
aI490
aI500
aI510
aI520
aI530
aI540
aI550
aI560
aI570
aI580
aI590
aI600
aI610
aI620
aI630
aI640
aI650
aI660
aI670
aI680
aI690
aI700
aI710
aI720
aI730
aI740
aI750
aI760
aI770
aI780
aI790
aI800
aI810
aI820
aI830
aI840
aI850
aI860
aI870
aI880
aI890
aI900
aI910
aI920
aI930
aI940
aI950
aI960
aI970
aI980
aI990
aI1000
aI1010
aI1020
aI1030
aI1040
aI1050
aI1060
aI1070
aI1080
aI1090
aI1100
aI1110
aI1120
aI1130
aI1140
aI1150
aI1160
aI1170
aI1180
aI1190
aI1200
aI1210
aI1220
aI1230
aI1240
aI1250
aI1260
asg8
(lp179
I0
aI0
aI0
aI1
aI2
aI2
aI2
aI2
aI2
aI4
aI4
aI5
aI6
aI7
aI8
aI8
aI9
aI10
aI11
aI11
aI12
aI12
aI13
aI14
aI15
aI15
aI15
aI16
aI16
aI16
aI16
aI17
aI18
aI18
aI18
aI18
aI18
aI20
aI24
aI25
aI28
aI29
aI30
aI33
aI35
aI37
aI42
aI45
aI46
aI47
aI48
aI51
aI53
aI54
aI54
aI57
aI59
aI61
aI62
aI63
aI66
aI67
aI69
aI70
aI72
aI75
aI78
aI81
aI81
aI82
aI83
aI85
aI88
aI89
aI91
aI91
aI94
aI94
aI96
aI97
aI97
aI100
aI102
aI104
aI105
aI107
aI109
aI110
aI111
aI112
aI113
aI115
aI115
aI117
aI119
aI119
aI119
aI120
aI122
aI123
aI123
aI123
aI124
aI124
aI124
aI124
aI126
aI126
aI127
aI127
aI128
aI128
aI128
aI129
aI131
aI132
aI133
aI133
aI133
aI133
aI133
aI133
aI134
aI134
aI134
aI136
aI138
asa(dp180
g6
(lp181
I0
aI10
aI20
aI30
aI40
aI50
aI60
aI70
aI80
aI90
aI100
aI110
aI120
aI130
aI140
aI150
aI160
aI170
aI180
aI190
aI200
aI210
aI220
aI230
aI240
aI250
aI260
aI270
aI280
aI290
aI300
aI310
aI320
aI330
aI340
aI350
aI360
aI370
aI380
aI390
aI400
aI410
aI420
aI430
aI440
aI450
aI460
aI470
aI480
aI490
aI500
aI510
aI520
aI530
aI540
aI550
aI560
aI570
aI580
aI590
aI600
aI610
aI620
aI630
aI640
aI650
aI660
aI670
aI680
aI690
aI700
aI710
aI720
aI730
aI740
aI750
aI760
aI770
aI780
aI790
aI800
aI810
aI820
aI830
aI840
aI850
aI860
aI870
aI880
aI890
aI900
aI910
aI920
aI930
aI940
aI950
aI960
aI970
aI980
aI990
aI1000
aI1010
aI1020
aI1030
aI1040
aI1050
aI1060
aI1070
aI1080
aI1090
aI1100
aI1110
aI1120
aI1130
aI1140
aI1150
aI1160
aI1170
aI1180
aI1190
aI1200
aI1210
aI1220
aI1230
asg8
(lp182
I0
aI1
aI1
aI3
aI5
aI5
aI6
aI8
aI8
aI8
aI11
aI12
aI13
aI16
aI19
aI20
aI23
aI28
aI35
aI37
aI38
aI39
aI39
aI39
aI40
aI46
aI50
aI53
aI54
aI56
aI58
aI59
aI60
aI63
aI64
aI65
aI66
aI69
aI70
aI70
aI71
aI72
aI73
aI74
aI76
aI77
aI79
aI79
aI80
aI81
aI85
aI86
aI88
aI88
aI90
aI90
aI91
aI92
aI93
aI93
aI94
aI94
aI97
aI97
aI100
aI101
aI103
aI104
aI104
aI104
aI104
aI104
aI105
aI105
aI106
aI106
aI106
aI107
aI110
aI110
aI110
aI111
aI114
aI115
aI116
aI118
aI119
aI120
aI121
aI123
aI123
aI125
aI126
aI126
aI126
aI129
aI129
aI131
aI131
aI131
aI131
aI131
aI131
aI131
aI131
aI131
aI131
aI131
aI133
aI134
aI134
aI134
aI134
aI134
aI134
aI135
aI135
aI135
aI135
aI136
aI136
aI137
aI137
aI138
asa(dp183
g6
(lp184
I0
aI10
aI20
aI30
aI40
aI50
aI60
aI70
aI80
aI90
aI100
aI110
aI120
aI130
aI140
aI150
aI160
aI170
aI180
aI190
aI200
aI210
aI220
aI230
aI240
aI250
aI260
aI270
aI280
aI290
aI300
aI310
aI320
aI330
aI340
aI350
aI360
aI370
aI380
aI390
aI400
aI410
aI420
aI430
aI440
aI450
aI460
aI470
aI480
aI490
aI500
aI510
aI520
aI530
aI540
aI550
aI560
aI570
aI580
aI590
aI600
aI610
aI620
aI630
aI640
aI650
aI660
aI670
aI680
aI690
aI700
aI710
aI720
aI730
aI740
aI750
aI760
aI770
aI780
aI790
aI800
aI810
aI820
aI830
aI840
aI850
aI860
aI870
aI880
aI890
aI900
aI910
aI920
aI930
aI940
aI950
aI960
aI970
aI980
aI990
aI1000
aI1010
aI1020
aI1030
aI1040
aI1050
aI1060
aI1070
aI1080
aI1090
aI1100
aI1110
aI1120
aI1130
aI1140
aI1150
aI1160
aI1170
aI1180
aI1190
asg8
(lp185
I0
aI1
aI2
aI2
aI2
aI2
aI2
aI3
aI3
aI4
aI5
aI6
aI6
aI6
aI7
aI9
aI11
aI11
aI16
aI17
aI18
aI20
aI22
aI24
aI26
aI28
aI31
aI33
aI33
aI34
aI34
aI36
aI39
aI44
aI49
aI52
aI53
aI57
aI59
aI63
aI65
aI66
aI66
aI67
aI69
aI70
aI71
aI72
aI73
aI75
aI77
aI80
aI81
aI82
aI82
aI82
aI82
aI83
aI83
aI84
aI87
aI87
aI90
aI92
aI94
aI95
aI97
aI97
aI98
aI99
aI99
aI101
aI103
aI103
aI104
aI105
aI105
aI105
aI105
aI106
aI107
aI107
aI107
aI108
aI109
aI110
aI113
aI115
aI115
aI117
aI118
aI118
aI120
aI120
aI122
aI123
aI123
aI123
aI124
aI124
aI125
aI127
aI129
aI129
aI130
aI130
aI130
aI130
aI131
aI131
aI132
aI133
aI134
aI134
aI134
aI136
aI136
aI137
aI137
aI139
asa(dp186
g6
(lp187
I0
aI10
aI20
aI30
aI40
aI50
aI60
aI70
aI80
aI90
aI100
aI110
aI120
aI130
aI140
aI150
aI160
aI170
aI180
aI190
aI200
aI210
aI220
aI230
aI240
aI250
aI260
aI270
aI280
aI290
aI300
aI310
aI320
aI330
aI340
aI350
aI360
aI370
aI380
aI390
aI400
aI410
aI420
aI430
aI440
aI450
aI460
aI470
aI480
aI490
aI500
aI510
aI520
aI530
aI540
aI550
aI560
aI570
aI580
aI590
aI600
aI610
aI620
aI630
aI640
aI650
aI660
aI670
aI680
aI690
aI700
aI710
aI720
aI730
aI740
aI750
aI760
aI770
aI780
aI790
aI800
aI810
aI820
aI830
aI840
aI850
aI860
aI870
aI880
aI890
aI900
aI910
aI920
aI930
aI940
aI950
aI960
aI970
aI980
aI990
aI1000
aI1010
aI1020
aI1030
aI1040
aI1050
aI1060
aI1070
aI1080
aI1090
aI1100
aI1110
aI1120
aI1130
aI1140
aI1150
aI1160
aI1170
aI1180
aI1190
aI1200
aI1210
aI1220
aI1230
aI1240
aI1250
aI1260
asg8
(lp188
I0
aI2
aI2
aI7
aI7
aI7
aI9
aI10
aI11
aI11
aI11
aI15
aI16
aI16
aI21
aI23
aI26
aI28
aI31
aI32
aI33
aI33
aI36
aI37
aI37
aI40
aI42
aI44
aI45
aI47
aI48
aI50
aI50
aI50
aI52
aI54
aI54
aI56
aI56
aI56
aI58
aI60
aI62
aI65
aI67
aI69
aI72
aI75
aI77
aI78
aI79
aI80
aI82
aI84
aI88
aI88
aI89
aI90
aI91
aI91
aI92
aI93
aI94
aI95
aI95
aI95
aI95
aI96
aI97
aI98
aI99
aI101
aI102
aI103
aI105
aI107
aI109
aI109
aI110
aI110
aI110
aI113
aI114
aI115
aI116
aI118
aI118
aI120
aI120
aI120
aI122
aI123
aI123
aI124
aI124
aI124
aI124
aI124
aI124
aI124
aI124
aI124
aI125
aI128
aI128
aI129
aI130
aI131
aI131
aI131
aI131
aI131
aI131
aI131
aI131
aI132
aI132
aI132
aI132
aI132
aI134
aI135
aI135
aI136
aI136
aI137
aI138
asasS'FASTREAD_1'
p189
(lp190
sS'FASTREAD_0'
p191
(lp192
s.