(lp0
(dp1
S'x'
p2
(lp3
I0
aI10
aI20
aI30
aI40
aI50
aI60
aI70
aI80
aI90
aI100
aI110
aI120
aI130
aI140
aI150
aI160
aI170
aI180
aI190
aI200
aI210
aI220
aI230
aI240
aI250
aI260
aI270
aI280
aI290
aI300
aI310
aI320
aI330
aI340
aI350
aI360
aI370
aI380
aI390
aI400
aI410
aI420
aI430
aI440
asS'pos'
p4
(lp5
I0
aI0
aI0
aI1
aI5
aI9
aI12
aI16
aI16
aI22
aI26
aI29
aI30
aI37
aI44
aI52
aI57
aI63
aI69
aI72
aI79
aI84
aI87
aI91
aI93
aI94
aI94
aI95
aI96
aI96
aI97
aI98
aI98
aI98
aI98
aI98
aI100
aI102
aI102
aI102
aI102
aI102
aI102
aI102
aI102
asa(dp6
g2
(lp7
I0
aI10
aI20
aI30
aI40
aI50
aI60
aI70
aI80
aI90
aI100
aI110
aI120
aI130
aI140
aI150
aI160
aI170
aI180
aI190
aI200
aI210
aI220
aI230
aI240
aI250
aI260
aI270
aI280
aI290
aI300
aI310
aI320
aI330
aI340
aI350
aI360
aI370
aI380
aI390
aI400
aI410
aI420
aI430
aI440
asg4
(lp8
I0
aI1
aI2
aI8
aI11
aI14
aI16
aI22
aI27
aI30
aI36
aI44
aI48
aI56
aI60
aI65
aI73
aI78
aI82
aI82
aI84
aI85
aI88
aI93
aI94
aI95
aI97
aI98
aI98
aI99
aI100
aI100
aI100
aI100
aI100
aI101
aI101
aI102
aI102
aI102
aI102
aI102
aI102
aI102
aI102
asa(dp9
g2
(lp10
I0
aI10
aI20
aI30
aI40
aI50
aI60
aI70
aI80
aI90
aI100
aI110
aI120
aI130
aI140
aI150
aI160
aI170
aI180
aI190
aI200
aI210
aI220
aI230
aI240
aI250
aI260
aI270
aI280
aI290
aI300
aI310
aI320
aI330
aI340
aI350
aI360
aI370
aI380
aI390
aI400
aI410
aI420
aI430
aI440
aI450
aI460
aI470
aI480
aI490
aI500
aI510
aI520
aI530
aI540
aI550
aI560
aI570
aI580
aI590
asg4
(lp11
I0
aI0
aI0
aI0
aI0
aI0
aI0
aI0
aI2
aI6
aI8
aI12
aI16
aI22
aI28
aI29
aI30
aI35
aI44
aI48
aI53
aI57
aI61
aI63
aI70
aI75
aI81
aI86
aI87
aI90
aI92
aI92
aI94
aI94
aI95
aI95
aI96
aI96
aI98
aI99
aI99
aI99
aI101
aI101
aI101
aI101
aI101
aI101
aI101
aI101
aI101
aI101
aI101
aI102
aI102
aI102
aI102
aI102
aI102
aI102
asa(dp12
g2
(lp13
I0
aI10
aI20
aI30
aI40
aI50
aI60
aI70
aI80
aI90
aI100
aI110
aI120
aI130
aI140
aI150
aI160
aI170
aI180
aI190
aI200
aI210
aI220
aI230
aI240
aI250
aI260
aI270
aI280
aI290
aI300
aI310
aI320
aI330
aI340
aI350
aI360
aI370
aI380
aI390
aI400
aI410
aI420
aI430
aI440
aI450
aI460
aI470
aI480
aI490
aI500
aI510
aI520
aI530
aI540
asg4
(lp14
I0
aI0
aI0
aI0
aI0
aI0
aI0
aI0
aI0
aI0
aI1
aI8
aI11
aI17
aI21
aI21
aI24
aI26
aI31
aI37
aI44
aI50
aI55
aI60
aI62
aI63
aI64
aI70
aI75
aI81
aI85
aI87
aI90
aI92
aI95
aI95
aI96
aI97
aI97
aI97
aI98
aI98
aI99
aI99
aI99
aI99
aI100
aI101
aI101
aI101
aI101
aI101
aI102
aI102
aI102
asa(dp15
g2
(lp16
I0
aI10
aI20
aI30
aI40
aI50
aI60
aI70
aI80
aI90
aI100
aI110
aI120
aI130
aI140
aI150
aI160
aI170
aI180
aI190
aI200
aI210
aI220
aI230
aI240
aI250
aI260
aI270
aI280
aI290
aI300
aI310
aI320
aI330
aI340
aI350
aI360
aI370
aI380
aI390
aI400
aI410
aI420
aI430
aI440
aI450
aI460
aI470
aI480
aI490
aI500
aI510
aI520
aI530
aI540
aI550
aI560
aI570
aI580
aI590
aI600
aI610
aI620
aI630
asg4
(lp17
I0
aI0
aI0
aI0
aI0
aI0
aI0
aI0
aI0
aI0
aI0
aI0
aI0
aI0
aI1
aI5
aI13
aI18
aI21
aI27
aI29
aI32
aI40
aI46
aI53
aI59
aI63
aI68
aI69
aI71
aI72
aI75
aI77
aI81
aI82
aI87
aI88
aI92
aI94
aI95
aI97
aI97
aI98
aI98
aI99
aI99
aI100
aI100
aI101
aI101
aI101
aI101
aI101
aI101
aI102
aI102
aI102
aI102
aI102
aI102
aI102
aI102
aI102
aI102
asa(dp18
g2
(lp19
I0
aI10
aI20
aI30
aI40
aI50
aI60
aI70
aI80
aI90
aI100
aI110
aI120
aI130
aI140
aI150
aI160
aI170
aI180
aI190
aI200
aI210
aI220
aI230
aI240
aI250
aI260
aI270
aI280
aI290
aI300
aI310
aI320
aI330
aI340
aI350
aI360
aI370
aI380
aI390
aI400
aI410
aI420
aI430
aI440
aI450
aI460
aI470
asg4
(lp20
I0
aI0
aI1
aI8
aI9
aI15
aI16
aI19
aI21
aI26
aI31
aI36
aI41
aI48
aI52
aI59
aI64
aI69
aI73
aI78
aI82
aI84
aI87
aI92
aI93
aI96
aI96
aI97
aI99
aI99
aI100
aI100
aI101
aI101
aI101
aI101
aI101
aI102
aI102
aI102
aI102
aI102
aI102
aI102
aI102
aI103
aI103
aI103
asa(dp21
g2
(lp22
I0
aI10
aI20
aI30
aI40
aI50
aI60
aI70
aI80
aI90
aI100
aI110
aI120
aI130
aI140
aI150
aI160
aI170
aI180
aI190
aI200
aI210
aI220
aI230
aI240
aI250
aI260
aI270
aI280
aI290
aI300
aI310
aI320
aI330
aI340
aI350
aI360
aI370
aI380
aI390
aI400
aI410
aI420
aI430
asg4
(lp23
I0
aI1
aI6
aI10
aI15
aI16
aI21
aI24
aI27
aI31
aI37
aI43
aI49
aI55
aI59
aI64
aI67
aI72
aI77
aI83
aI87
aI91
aI94
aI95
aI97
aI97
aI97
aI99
aI99
aI100
aI100
aI100
aI100
aI101
aI101
aI101
aI101
aI102
aI102
aI102
aI102
aI102
aI102
aI102
asa(dp24
g2
(lp25
I0
aI10
aI20
aI30
aI40
aI50
aI60
aI70
aI80
aI90
aI100
aI110
aI120
aI130
aI140
aI150
aI160
aI170
aI180
aI190
aI200
aI210
aI220
aI230
aI240
aI250
aI260
aI270
aI280
aI290
aI300
aI310
aI320
aI330
aI340
aI350
aI360
aI370
aI380
aI390
aI400
aI410
aI420
aI430
aI440
aI450
aI460
aI470
aI480
aI490
aI500
aI510
aI520
aI530
aI540
aI550
aI560
asg4
(lp26
I0
aI0
aI0
aI0
aI0
aI0
aI0
aI0
aI0
aI2
aI8
aI12
aI16
aI18
aI23
aI26
aI28
aI30
aI37
aI44
aI52
aI57
aI61
aI64
aI68
aI75
aI80
aI83
aI86
aI88
aI91
aI93
aI94
aI94
aI96
aI97
aI97
aI98
aI98
aI100
aI101
aI102
aI102
aI102
aI102
aI102
aI102
aI102
aI102
aI102
aI102
aI102
aI102
aI102
aI102
aI102
aI102
asa(dp27
g2
(lp28
I0
aI10
aI20
aI30
aI40
aI50
aI60
aI70
aI80
aI90
aI100
aI110
aI120
aI130
aI140
aI150
aI160
aI170
aI180
aI190
aI200
aI210
aI220
aI230
aI240
aI250
aI260
aI270
aI280
aI290
aI300
aI310
aI320
aI330
aI340
aI350
aI360
aI370
aI380
aI390
aI400
aI410
aI420
aI430
aI440
aI450
aI460
aI470
aI480
aI490
aI500
aI510
aI520
aI530
aI540
aI550
aI560
aI570
aI580
aI590
aI600
aI610
aI620
aI630
aI640
aI650
aI660
aI670
aI680
aI690
aI700
aI710
aI720
aI730
aI740
aI750
aI760
aI770
aI780
aI790
aI800
aI810
aI820
aI830
asg4
(lp29
I0
aI0
aI0
aI0
aI0
aI0
aI0
aI0
aI0
aI0
aI0
aI0
aI0
aI0
aI0
aI0
aI0
aI0
aI0
aI0
aI0
aI0
aI0
aI0
aI0
aI0
aI0
aI0
aI1
aI8
aI12
aI17
aI24
aI26
aI31
aI39
aI45
aI49
aI53
aI56
aI59
aI60
aI64
aI68
aI72
aI75
aI79
aI81
aI84
aI86
aI89
aI93
aI93
aI93
aI94
aI95
aI96
aI96
aI96
aI97
aI98
aI98
aI99
aI99
aI99
aI100
aI100
aI100
aI100
aI100
aI100
aI100
aI100
aI100
aI100
aI100
aI101
aI102
aI102
aI102
aI102
aI102
aI102
aI102
asa(dp30
g2
(lp31
I0
aI10
aI20
aI30
aI40
aI50
aI60
aI70
aI80
aI90
aI100
aI110
aI120
aI130
aI140
aI150
aI160
aI170
aI180
aI190
aI200
aI210
aI220
aI230
aI240
aI250
aI260
aI270
aI280
aI290
aI300
aI310
aI320
aI330
aI340
aI350
aI360
aI370
aI380
aI390
aI400
aI410
aI420
aI430
aI440
aI450
aI460
aI470
aI480
aI490
asg4
(lp32
I0
aI0
aI0
aI1
aI3
aI4
aI10
aI12
aI16
aI20
aI23
aI24
aI26
aI35
aI44
aI51
aI57
aI66
aI68
aI73
aI77
aI80
aI83
aI86
aI87
aI88
aI88
aI91
aI93
aI95
aI96
aI97
aI98
aI99
aI99
aI101
aI101
aI101
aI102
aI102
aI102
aI102
aI102
aI102
aI102
aI103
aI103
aI103
aI103
aI103
asa(dp33
g2
(lp34
I0
aI10
aI20
aI30
aI40
aI50
aI60
aI70
aI80
aI90
aI100
aI110
aI120
aI130
aI140
aI150
aI160
aI170
aI180
aI190
aI200
aI210
aI220
aI230
aI240
aI250
aI260
aI270
aI280
aI290
aI300
aI310
aI320
aI330
aI340
aI350
aI360
aI370
aI380
aI390
aI400
aI410
aI420
asg4
(lp35
I0
aI0
aI0
aI0
aI1
aI7
aI10
aI15
aI21
aI23
aI28
aI34
aI41
aI46
aI52
aI57
aI63
aI67
aI72
aI77
aI81
aI85
aI87
aI88
aI89
aI91
aI91
aI93
aI94
aI96
aI98
aI98
aI98
aI99
aI100
aI100
aI100
aI100
aI100
aI101
aI101
aI101
aI101
asa(dp36
g2
(lp37
I0
aI10
aI20
aI30
aI40
aI50
aI60
aI70
aI80
aI90
aI100
aI110
aI120
aI130
aI140
aI150
aI160
aI170
aI180
aI190
aI200
aI210
aI220
aI230
aI240
aI250
aI260
aI270
aI280
aI290
aI300
aI310
aI320
aI330
aI340
aI350
aI360
aI370
aI380
aI390
aI400
aI410
aI420
aI430
aI440
aI450
asg4
(lp38
I0
aI0
aI1
aI9
aI11
aI16
aI21
aI25
aI27
aI27
aI30
aI36
aI43
aI47
aI52
aI56
aI64
aI71
aI75
aI77
aI78
aI80
aI85
aI91
aI91
aI93
aI94
aI95
aI97
aI98
aI99
aI99
aI101
aI102
aI102
aI102
aI102
aI102
aI102
aI102
aI102
aI102
aI102
aI102
aI102
aI103
asa(dp39
g2
(lp40
I0
aI10
aI20
aI30
aI40
aI50
aI60
aI70
aI80
aI90
aI100
aI110
aI120
aI130
aI140
aI150
aI160
aI170
aI180
aI190
aI200
aI210
aI220
aI230
aI240
aI250
aI260
aI270
aI280
aI290
aI300
aI310
aI320
aI330
aI340
aI350
aI360
aI370
aI380
aI390
aI400
aI410
aI420
aI430
aI440
aI450
aI460
aI470
aI480
aI490
aI500
aI510
aI520
aI530
asg4
(lp41
I0
aI0
aI0
aI0
aI0
aI0
aI0
aI0
aI1
aI7
aI10
aI12
aI16
aI18
aI22
aI27
aI28
aI29
aI32
aI40
aI48
aI55
aI58
aI63
aI69
aI71
aI77
aI82
aI85
aI86
aI89
aI92
aI93
aI95
aI97
aI98
aI98
aI98
aI100
aI100
aI100
aI101
aI101
aI101
aI101
aI101
aI101
aI102
aI102
aI102
aI102
aI102
aI102
aI102
asa(dp42
g2
(lp43
I0
aI10
aI20
aI30
aI40
aI50
aI60
aI70
aI80
aI90
aI100
aI110
aI120
aI130
aI140
aI150
aI160
aI170
aI180
aI190
aI200
aI210
aI220
aI230
aI240
aI250
aI260
aI270
aI280
aI290
aI300
aI310
aI320
aI330
aI340
aI350
aI360
aI370
aI380
aI390
aI400
aI410
aI420
aI430
asg4
(lp44
I0
aI0
aI0
aI1
aI5
aI6
aI10
aI17
aI19
aI23
aI24
aI27
aI30
aI37
aI44
aI51
aI55
aI61
aI66
aI70
aI75
aI80
aI85
aI88
aI90
aI92
aI96
aI96
aI96
aI96
aI97
aI98
aI100
aI100
aI100
aI101
aI101
aI101
aI101
aI101
aI102
aI102
aI102
aI102
asa(dp45
g2
(lp46
I0
aI10
aI20
aI30
aI40
aI50
aI60
aI70
aI80
aI90
aI100
aI110
aI120
aI130
aI140
aI150
aI160
aI170
aI180
aI190
aI200
aI210
aI220
aI230
aI240
aI250
aI260
aI270
aI280
aI290
aI300
aI310
aI320
aI330
aI340
aI350
aI360
aI370
aI380
aI390
aI400
aI410
aI420
aI430
aI440
aI450
aI460
aI470
aI480
aI490
aI500
aI510
aI520
aI530
aI540
aI550
aI560
aI570
aI580
aI590
aI600
aI610
aI620
aI630
aI640
aI650
aI660
aI670
aI680
aI690
aI700
aI710
aI720
asg4
(lp47
I0
aI0
aI0
aI0
aI0
aI0
aI0
aI0
aI0
aI0
aI0
aI0
aI0
aI0
aI0
aI0
aI0
aI0
aI0
aI0
aI0
aI0
aI1
aI7
aI14
aI19
aI26
aI28
aI29
aI32
aI37
aI44
aI51
aI56
aI58
aI60
aI63
aI68
aI71
aI71
aI75
aI79
aI82
aI86
aI87
aI87
aI88
aI89
aI90
aI93
aI95
aI97
aI97
aI98
aI99
aI101
aI101
aI101
aI101
aI101
aI101
aI101
aI101
aI101
aI101
aI101
aI102
aI102
aI102
aI102
aI102
aI102
aI102
asa(dp48
g2
(lp49
I0
aI10
aI20
aI30
aI40
aI50
aI60
aI70
aI80
aI90
aI100
aI110
aI120
aI130
aI140
aI150
aI160
aI170
aI180
aI190
aI200
aI210
aI220
aI230
aI240
aI250
aI260
aI270
aI280
aI290
aI300
aI310
aI320
aI330
aI340
aI350
aI360
aI370
aI380
aI390
aI400
aI410
aI420
aI430
aI440
aI450
aI460
aI470
aI480
aI490
aI500
aI510
aI520
aI530
aI540
aI550
aI560
aI570
aI580
aI590
aI600
aI610
aI620
aI630
aI640
aI650
aI660
aI670
aI680
aI690
asg4
(lp50
I0
aI0
aI0
aI0
aI0
aI0
aI0
aI0
aI0
aI0
aI0
aI0
aI0
aI0
aI0
aI0
aI0
aI0
aI0
aI0
aI1
aI5
aI13
aI17
aI22
aI26
aI30
aI37
aI43
aI49
aI53
aI55
aI58
aI61
aI64
aI67
aI67
aI68
aI70
aI73
aI78
aI83
aI86
aI87
aI90
aI91
aI94
aI95
aI95
aI96
aI97
aI97
aI97
aI97
aI98
aI100
aI100
aI100
aI101
aI101
aI102
aI102
aI102
aI102
aI102
aI102
aI102
aI102
aI102
aI102
asa(dp51
g2
(lp52
I0
aI10
aI20
aI30
aI40
aI50
aI60
aI70
aI80
aI90
aI100
aI110
aI120
aI130
aI140
aI150
aI160
aI170
aI180
aI190
aI200
aI210
aI220
aI230
aI240
aI250
aI260
aI270
aI280
aI290
aI300
aI310
aI320
aI330
aI340
aI350
aI360
aI370
aI380
aI390
aI400
aI410
aI420
aI430
aI440
aI450
aI460
aI470
aI480
aI490
aI500
aI510
aI520
aI530
aI540
aI550
aI560
aI570
aI580
aI590
aI600
aI610
aI620
aI630
aI640
aI650
aI660
aI670
aI680
aI690
asg4
(lp53
I0
aI0
aI0
aI0
aI0
aI0
aI1
aI1
aI1
aI1
aI1
aI1
aI1
aI2
aI5
aI11
aI15
aI20
aI22
aI24
aI29
aI31
aI38
aI45
aI51
aI55
aI59
aI62
aI68
aI72
aI73
aI77
aI81
aI82
aI85
aI88
aI90
aI95
aI97
aI98
aI99
aI99
aI99
aI101
aI102
aI102
aI102
aI102
aI102
aI102
aI102
aI102
aI103
aI103
aI103
aI103
aI103
aI103
aI103
aI103
aI103
aI103
aI103
aI103
aI103
aI103
aI103
aI103
aI103
aI103
asa(dp54
g2
(lp55
I0
aI10
aI20
aI30
aI40
aI50
aI60
aI70
aI80
aI90
aI100
aI110
aI120
aI130
aI140
aI150
aI160
aI170
aI180
aI190
aI200
aI210
aI220
aI230
aI240
aI250
aI260
aI270
aI280
aI290
aI300
aI310
aI320
aI330
aI340
aI350
aI360
aI370
aI380
aI390
aI400
aI410
aI420
aI430
aI440
aI450
aI460
aI470
asg4
(lp56
I0
aI0
aI0
aI0
aI0
aI0
aI1
aI5
aI10
aI14
aI18
aI20
aI24
aI26
aI30
aI38
aI43
aI50
aI55
aI62
aI66
aI73
aI76
aI80
aI82
aI85
aI88
aI91
aI91
aI92
aI94
aI95
aI98
aI99
aI99
aI99
aI100
aI101
aI101
aI101
aI101
aI101
aI101
aI102
aI102
aI102
aI102
aI102
asa(dp57
g2
(lp58
I0
aI10
aI20
aI30
aI40
aI50
aI60
aI70
aI80
aI90
aI100
aI110
aI120
aI130
aI140
aI150
aI160
aI170
aI180
aI190
aI200
aI210
aI220
aI230
aI240
aI250
aI260
aI270
aI280
aI290
aI300
aI310
aI320
aI330
aI340
aI350
aI360
aI370
aI380
aI390
aI400
aI410
aI420
aI430
aI440
aI450
aI460
aI470
aI480
aI490
asg4
(lp59
I0
aI0
aI0
aI0
aI0
aI0
aI0
aI1
aI7
aI10
aI15
aI16
aI17
aI23
aI27
aI32
aI38
aI46
aI52
aI59
aI65
aI69
aI74
aI77
aI78
aI81
aI83
aI88
aI91
aI94
aI95
aI96
aI97
aI97
aI98
aI98
aI99
aI101
aI101
aI101
aI101
aI101
aI101
aI101
aI102
aI102
aI102
aI102
aI102
aI102
asa(dp60
g2
(lp61
I0
aI10
aI20
aI30
aI40
aI50
aI60
aI70
aI80
aI90
aI100
aI110
aI120
aI130
aI140
aI150
aI160
aI170
aI180
aI190
aI200
aI210
aI220
aI230
aI240
aI250
aI260
aI270
aI280
aI290
aI300
aI310
aI320
aI330
aI340
aI350
aI360
aI370
aI380
aI390
aI400
aI410
aI420
aI430
aI440
aI450
aI460
aI470
aI480
asg4
(lp62
I0
aI0
aI0
aI0
aI0
aI0
aI1
aI7
aI10
aI15
aI18
aI20
aI24
aI26
aI28
aI29
aI33
aI40
aI48
aI54
aI61
aI65
aI71
aI74
aI77
aI84
aI86
aI87
aI88
aI91
aI94
aI95
aI95
aI96
aI98
aI99
aI100
aI100
aI101
aI101
aI102
aI102
aI102
aI102
aI102
aI102
aI102
aI102
aI102
asa(dp63
g2
(lp64
I0
aI10
aI20
aI30
aI40
aI50
aI60
aI70
aI80
aI90
aI100
aI110
aI120
aI130
aI140
aI150
aI160
aI170
aI180
aI190
aI200
aI210
aI220
aI230
aI240
aI250
aI260
aI270
aI280
aI290
aI300
aI310
aI320
aI330
aI340
aI350
aI360
aI370
aI380
aI390
aI400
aI410
aI420
aI430
aI440
asg4
(lp65
I0
aI1
aI5
aI6
aI11
aI14
aI16
aI21
aI23
aI28
aI31
aI36
aI42
aI46
aI51
aI58
aI65
aI71
aI76
aI80
aI84
aI87
aI89
aI93
aI94
aI94
aI95
aI96
aI97
aI99
aI101
aI101
aI101
aI101
aI101
aI101
aI101
aI102
aI102
aI102
aI102
aI102
aI102
aI102
aI102
asa(dp66
g2
(lp67
I0
aI10
aI20
aI30
aI40
aI50
aI60
aI70
aI80
aI90
aI100
aI110
aI120
aI130
aI140
aI150
aI160
aI170
aI180
aI190
aI200
aI210
aI220
aI230
aI240
aI250
aI260
aI270
aI280
aI290
aI300
aI310
aI320
aI330
aI340
aI350
aI360
aI370
aI380
aI390
aI400
aI410
aI420
aI430
aI440
aI450
aI460
aI470
aI480
aI490
aI500
aI510
aI520
aI530
aI540
asg4
(lp68
I0
aI0
aI0
aI0
aI0
aI0
aI0
aI0
aI0
aI0
aI1
aI5
aI10
aI11
aI14
aI19
aI21
aI24
aI27
aI30
aI38
aI46
aI54
aI58
aI63
aI66
aI69
aI72
aI75
aI80
aI84
aI91
aI92
aI92
aI94
aI95
aI95
aI95
aI97
aI97
aI99
aI101
aI101
aI101
aI101
aI101
aI101
aI101
aI101
aI101
aI101
aI101
aI101
aI101
aI101
asa(dp69
g2
(lp70
I0
aI10
aI20
aI30
aI40
aI50
aI60
aI70
aI80
aI90
aI100
aI110
aI120
aI130
aI140
aI150
aI160
aI170
aI180
aI190
aI200
aI210
aI220
aI230
aI240
aI250
aI260
aI270
aI280
aI290
aI300
aI310
aI320
aI330
aI340
aI350
aI360
aI370
aI380
aI390
aI400
aI410
aI420
aI430
aI440
aI450
aI460
aI470
aI480
aI490
aI500
aI510
aI520
aI530
aI540
aI550
aI560
aI570
asg4
(lp71
I0
aI0
aI0
aI0
aI0
aI0
aI0
aI0
aI0
aI0
aI1
aI2
aI5
aI7
aI12
aI20
aI23
aI27
aI34
aI42
aI48
aI57
aI62
aI68
aI71
aI75
aI79
aI82
aI84
aI86
aI89
aI95
aI97
aI97
aI97
aI97
aI99
aI99
aI100
aI100
aI100
aI100
aI100
aI100
aI100
aI101
aI101
aI101
aI101
aI102
aI102
aI102
aI102
aI102
aI102
aI102
aI102
aI102
asa(dp72
g2
(lp73
I0
aI10
aI20
aI30
aI40
aI50
aI60
aI70
aI80
aI90
aI100
aI110
aI120
aI130
aI140
aI150
aI160
aI170
aI180
aI190
aI200
aI210
aI220
aI230
aI240
aI250
aI260
aI270
aI280
aI290
aI300
aI310
aI320
aI330
aI340
aI350
aI360
aI370
aI380
aI390
aI400
aI410
aI420
aI430
aI440
aI450
aI460
aI470
asg4
(lp74
I0
aI0
aI0
aI0
aI0
aI0
aI0
aI1
aI7
aI12
aI15
aI16
aI20
aI27
aI28
aI32
aI39
aI47
aI51
aI55
aI60
aI63
aI68
aI73
aI78
aI82
aI85
aI89
aI89
aI90
aI91
aI93
aI94
aI95
aI96
aI96
aI100
aI101
aI101
aI101
aI101
aI101
aI101
aI102
aI102
aI102
aI102
aI102
asa(dp75
g2
(lp76
I0
aI10
aI20
aI30
aI40
aI50
aI60
aI70
aI80
aI90
aI100
aI110
aI120
aI130
aI140
aI150
aI160
aI170
aI180
aI190
aI200
aI210
aI220
aI230
aI240
aI250
aI260
aI270
aI280
aI290
aI300
aI310
aI320
aI330
aI340
aI350
aI360
aI370
aI380
aI390
aI400
aI410
aI420
aI430
aI440
aI450
aI460
aI470
aI480
aI490
aI500
aI510
aI520
aI530
aI540
aI550
aI560
aI570
aI580
aI590
aI600
aI610
aI620
aI630
aI640
aI650
aI660
aI670
aI680
aI690
aI700
aI710
aI720
aI730
aI740
aI750
aI760
aI770
aI780
aI790
aI800
aI810
aI820
aI830
aI840
aI850
aI860
aI870
aI880
aI890
asg4
(lp77
I0
aI0
aI0
aI0
aI0
aI0
aI0
aI0
aI0
aI0
aI0
aI0
aI0
aI0
aI0
aI0
aI0
aI0
aI0
aI0
aI0
aI0
aI0
aI0
aI0
aI0
aI0
aI0
aI0
aI0
aI0
aI0
aI0
aI1
aI2
aI4
aI8
aI14
aI18
aI26
aI30
aI37
aI45
aI50
aI52
aI58
aI63
aI65
aI69
aI70
aI71
aI75
aI79
aI82
aI87
aI88
aI88
aI90
aI92
aI94
aI94
aI96
aI97
aI98
aI99
aI99
aI99
aI99
aI101
aI101
aI101
aI101
aI101
aI101
aI101
aI101
aI101
aI101
aI101
aI101
aI101
aI101
aI101
aI102
aI102
aI102
aI102
aI102
aI102
aI102
asa(dp78
g2
(lp79
I0
aI10
aI20
aI30
aI40
aI50
aI60
aI70
aI80
aI90
aI100
aI110
aI120
aI130
aI140
aI150
aI160
aI170
aI180
aI190
aI200
aI210
aI220
aI230
aI240
aI250
aI260
aI270
aI280
aI290
aI300
aI310
aI320
aI330
aI340
aI350
aI360
aI370
aI380
aI390
aI400
aI410
aI420
aI430
aI440
aI450
aI460
aI470
aI480
aI490
asg4
(lp80
I0
aI0
aI0
aI0
aI0
aI0
aI0
aI1
aI5
aI8
aI12
aI16
aI20
aI23
aI26
aI30
aI37
aI45
aI53
aI55
aI61
aI67
aI72
aI75
aI80
aI84
aI86
aI87
aI90
aI93
aI95
aI96
aI97
aI97
aI98
aI99
aI99
aI99
aI100
aI100
aI101
aI101
aI101
aI101
aI101
aI101
aI101
aI102
aI102
aI102
asa(dp81
g2
(lp82
I0
aI10
aI20
aI30
aI40
aI50
aI60
aI70
aI80
aI90
aI100
aI110
aI120
aI130
aI140
aI150
aI160
aI170
aI180
aI190
aI200
aI210
aI220
aI230
aI240
aI250
aI260
aI270
aI280
aI290
aI300
aI310
aI320
aI330
aI340
aI350
aI360
aI370
aI380
aI390
aI400
aI410
aI420
aI430
aI440
aI450
aI460
aI470
asg4
(lp83
I0
aI0
aI0
aI0
aI1
aI8
aI12
aI14
aI18
aI23
aI27
aI31
aI38
aI46
aI50
aI57
aI63
aI68
aI70
aI74
aI78
aI81
aI82
aI84
aI86
aI86
aI88
aI91
aI91
aI94
aI95
aI96
aI97
aI98
aI100
aI100
aI100
aI101
aI101
aI101
aI101
aI101
aI101
aI101
aI101
aI101
aI101
aI101
asa(dp84
g2
(lp85
I0
aI10
aI20
aI30
aI40
aI50
aI60
aI70
aI80
aI90
aI100
aI110
aI120
aI130
aI140
aI150
aI160
aI170
aI180
aI190
aI200
aI210
aI220
aI230
aI240
aI250
aI260
aI270
aI280
aI290
aI300
aI310
aI320
aI330
aI340
aI350
aI360
aI370
aI380
aI390
aI400
aI410
aI420
aI430
aI440
aI450
aI460
aI470
aI480
aI490
aI500
aI510
aI520
aI530
aI540
aI550
aI560
aI570
aI580
aI590
aI600
aI610
aI620
aI630
aI640
aI650
aI660
aI670
aI680
aI690
aI700
asg4
(lp86
I0
aI0
aI0
aI0
aI0
aI0
aI0
aI0
aI0
aI0
aI0
aI0
aI0
aI0
aI0
aI0
aI0
aI0
aI0
aI1
aI3
aI3
aI8
aI16
aI19
aI23
aI27
aI31
aI39
aI46
aI52
aI55
aI60
aI62
aI68
aI72
aI76
aI78
aI80
aI81
aI85
aI87
aI87
aI88
aI89
aI90
aI92
aI94
aI97
aI97
aI97
aI98
aI99
aI100
aI100
aI100
aI100
aI100
aI100
aI101
aI101
aI101
aI102
aI102
aI102
aI102
aI102
aI102
aI102
aI102
aI102
asa(dp87
g2
(lp88
I0
aI10
aI20
aI30
aI40
aI50
aI60
aI70
aI80
aI90
aI100
aI110
aI120
aI130
aI140
aI150
aI160
aI170
aI180
aI190
aI200
aI210
aI220
aI230
aI240
aI250
aI260
aI270
aI280
aI290
aI300
aI310
aI320
aI330
aI340
aI350
aI360
aI370
aI380
aI390
aI400
aI410
aI420
aI430
aI440
aI450
aI460
aI470
aI480
asg4
(lp89
I0
aI0
aI0
aI0
aI1
aI5
aI10
aI12
aI17
aI19
aI21
aI25
aI27
aI30
aI38
aI46
aI48
aI52
aI55
aI63
aI68
aI74
aI79
aI81
aI81
aI86
aI90
aI91
aI96
aI97
aI97
aI98
aI98
aI99
aI99
aI99
aI100
aI101
aI101
aI101
aI101
aI102
aI102
aI102
aI102
aI103
aI103
aI103
aI103
asa(dp90
g2
(lp91
I0
aI10
aI20
aI30
aI40
aI50
aI60
aI70
aI80
aI90
aI100
aI110
aI120
aI130
aI140
aI150
aI160
aI170
aI180
aI190
aI200
aI210
aI220
aI230
aI240
aI250
aI260
aI270
aI280
aI290
aI300
aI310
aI320
aI330
aI340
aI350
aI360
aI370
aI380
aI390
aI400
aI410
aI420
aI430
aI440
aI450
aI460
aI470
aI480
aI490
aI500
aI510
aI520
aI530
aI540
aI550
aI560
aI570
aI580
aI590
aI600
aI610
aI620
aI630
aI640
aI650
aI660
aI670
aI680
aI690
aI700
aI710
aI720
aI730
aI740
aI750
aI760
aI770
aI780
aI790
aI800
aI810
aI820
aI830
aI840
aI850
aI860
aI870
aI880
asg4
(lp92
I0
aI0
aI0
aI0
aI0
aI0
aI0
aI0
aI0
aI0
aI0
aI0
aI0
aI0
aI0
aI0
aI0
aI0
aI0
aI0
aI0
aI0
aI0
aI0
aI0
aI0
aI1
aI2
aI5
aI12
aI17
aI25
aI28
aI30
aI38
aI43
aI49
aI53
aI56
aI58
aI60
aI61
aI66
aI70
aI72
aI75
aI80
aI84
aI86
aI87
aI89
aI90
aI91
aI92
aI93
aI95
aI97
aI97
aI97
aI99
aI99
aI99
aI100
aI101
aI101
aI101
aI102
aI102
aI102
aI102
aI102
aI102
aI102
aI102
aI102
aI102
aI102
aI102
aI102
aI102
aI102
aI102
aI102
aI102
aI102
aI102
aI102
aI102
aI102
asa.