(dp0
S'est'
p1
(lp2
(dp3
S'x'
p4
(lp5
I40
aI50
aI60
aI70
aI80
aI90
aI100
aI110
aI120
aI130
aI140
aI150
aI160
aI170
aI180
aI190
aI200
aI210
aI220
aI230
aI240
aI250
aI260
aI270
aI280
asS'semi'
p6
(lp7
I132
aI156
aI173
aI182
aI172
aI137
aI110
aI129
aI116
aI131
aI136
aI139
aI141
aI139
aI140
aI125
aI123
aI125
aI122
aI127
aI130
aI131
aI122
aI136
aI127
asS'sigmoid'
p8
(lp9
cnumpy.core.multiarray
scalar
p10
(cnumpy
dtype
p11
(S'f8'
p12
I0
I1
tp13
Rp14
(I3
S'<'
p15
NNNI-1
I-1
I0
tp16
bS'T|H\xba\x0b+}@'
p17
tp18
Rp19
ag10
(g14
S'4}X9\x19\x1a\x7f@'
p20
tp21
Rp22
ag10
(g14
S'-\x91\x15\xa9\xb2\x1b\x81@'
p23
tp24
Rp25
ag10
(g14
S'6\x9c\xcd\xde\x83\t\x80@'
p26
tp27
Rp28
ag10
(g14
S'a\x93\x03\xb5s\xe9}@'
p29
tp30
Rp31
ag10
(g14
S'\x81\x89^O\xca\\x@'
p32
tp33
Rp34
ag10
(g14
S'\x9a\xd5\xf0\x98\xbc`r@'
p35
tp36
Rp37
ag10
(g14
S'D\xbf\xdb\xb7\xf9as@'
p38
tp39
Rp40
ag10
(g14
S'\xad\xf1\xdd\xb9N\xb3p@'
p41
tp42
Rp43
ag10
(g14
S"'\x81[pa\xa6r@"
p44
tp45
Rp46
ag10
(g14
S'\xcb\x1e\xfa\x9a\xf2\x93r@'
p47
tp48
Rp49
ag10
(g14
S'\xa5\xfd\xc0WLXr@'
p50
tp51
Rp52
ag10
(g14
S'i>6\xedC\x1er@'
p53
tp54
Rp55
ag10
(g14
S'\xde\x1b\xc2N\x8amp@'
p56
tp57
Rp58
ag10
(g14
S'\xd9\x1e\x18w\xcf\xf5n@'
p59
tp60
Rp61
ag10
(g14
S'\x0c\xb4\xfbz_\xe4g@'
p62
tp63
Rp64
ag10
(g14
S'\x99\x90\xe0uU\xd3f@'
p65
tp66
Rp67
ag10
(g14
S'\x00?(\xb4\xe1\xf6f@'
p68
tp69
Rp70
ag10
(g14
S'\x9aS\xb93\xdf\xaad@'
p71
tp72
Rp73
ag10
(g14
S'~\xb2\x90]\xc4;e@'
p74
tp75
Rp76
ag10
(g14
S'\xe6S\xcf\x0cb\xa5e@'
p77
tp78
Rp79
ag10
(g14
S'\x06\xaf\\\x84OVe@'
p80
tp81
Rp82
ag10
(g14
S'\xc6\x05x\xb6\x96\x96b@'
p83
tp84
Rp85
ag10
(g14
S'\x16u\xb0kl\xa7e@'
p86
tp87
Rp88
ag10
(g14
S'\x137vb\x9f&c@'
p89
tp90
Rp91
asa(dp92
g4
(lp93
I40
aI50
aI60
aI70
aI80
aI90
aI100
aI110
aI120
aI130
aI140
aI150
aI160
aI170
aI180
aI190
aI200
aI210
aI220
aI230
aI240
aI250
aI260
aI270
aI280
aI290
aI300
aI310
aI320
asg6
(lp94
I130
aI80
aI108
aI141
aI144
aI166
aI125
aI122
aI128
aI132
aI121
aI124
aI138
aI136
aI144
aI145
aI127
aI117
aI119
aI118
aI121
aI114
aI126
aI137
aI116
aI116
aI119
aI118
aI115
asg8
(lp95
g10
(g14
S'fGi\xa2a\t|@'
p96
tp97
Rp98
ag10
(g14
S'(\xc3~\x93p*v@'
p99
tp100
Rp101
ag10
(g14
S'\xef\x19Z\xfa\x16\xffv@'
p102
tp103
Rp104
ag10
(g14
S'\x83L\xe0\x1e:}{@'
p105
tp106
Rp107
ag10
(g14
S'\x96}\xa3w7\xe7{@'
p108
tp109
Rp110
ag10
(g14
S'\xfd!\x0e\xd8\x93\x1c|@'
p111
tp112
Rp113
ag10
(g14
S'(s\x81F\xceqs@'
p114
tp115
Rp116
ag10
(g14
S'\xb0U\xde(\xb7`s@'
p117
tp118
Rp119
ag10
(g14
S'X\x97&\xb3N\x97r@'
p120
tp121
Rp122
ag10
(g14
S'\x80\x1b\roy!t@'
p123
tp124
Rp125
ag10
(g14
S'Tc\xb3`\x9a\x07p@'
p126
tp127
Rp128
ag10
(g14
S'\xae\x0b\xa4Z\xbcDo@'
p129
tp130
Rp131
ag10
(g14
S'3a|\xd4\xf7`q@'
p132
tp133
Rp134
ag10
(g14
S'\xfb\x03\xabx\r\xeco@'
p135
tp136
Rp137
ag10
(g14
S'6\x93\x13\x14\xd6\xa6p@'
p138
tp139
Rp140
ag10
(g14
S'wLjj\xc6Mo@'
p141
tp142
Rp143
ag10
(g14
S'\xa8\xcf\xb9\xa7w\xe2h@'
p144
tp145
Rp146
ag10
(g14
S'\xc9\xa4]7#\x93d@'
p147
tp148
Rp149
ag10
(g14
S"\xdei\xac':\xa6c@"
p150
tp151
Rp152
ag10
(g14
S'\xcf><\x1f\xa4\x9db@'
p153
tp154
Rp155
ag10
(g14
S'N2\x10y<\xa6b@'
p156
tp157
Rp158
ag10
(g14
S'\xac\x89\x86~\xb6\xfb`@'
p159
tp160
Rp161
ag10
(g14
S'%h\xaa\x97\xe5\xb0c@'
p162
tp163
Rp164
ag10
(g14
S')4\x1a~ZJf@'
p165
tp166
Rp167
ag10
(g14
S'\xf7\xdc\x87\xbcr\xfb`@'
p168
tp169
Rp170
ag10
(g14
S'\x10\x1a\xe8\x9c\x9a\xa2`@'
p171
tp172
Rp173
ag10
(g14
S'\x80\x04\x8d\x9boHa@'
p174
tp175
Rp176
ag10
(g14
S'\xce\x0cf9\xcf\x96`@'
p177
tp178
Rp179
ag10
(g14
S'\xd8\xe0;\xb1@\xdb_@'
p180
tp181
Rp182
asa(dp183
g4
(lp184
I90
aI100
aI110
aI120
aI130
aI140
aI150
aI160
aI170
aI180
aI190
aI200
aI210
aI220
aI230
aI240
aI250
aI260
aI270
aI280
aI290
aI300
aI310
aI320
aI330
aI340
aI350
aI360
asg6
(lp185
I103
aI164
aI168
aI123
aI108
aI109
aI126
aI121
aI119
aI116
aI110
aI105
aI103
aI107
aI99
aI93
aI92
aI98
aI101
aI105
aI116
aI111
aI117
aI124
aI110
aI122
aI120
aI124
asg8
(lp186
g10
(g14
S'^\xa8[\xca\xd3\xebl@'
p187
tp188
Rp189
ag10
(g14
S'\xc4\xe5\xa6\x0b\xc5\xbbv@'
p190
tp191
Rp192
ag10
(g14
S'\xa6#\xc1t\x13\xf7v@'
p193
tp194
Rp195
ag10
(g14
S'\xd4g-|\xbf\xf3r@'
p196
tp197
Rp198
ag10
(g14
S'd\xf9\xf6\x80\xbbbp@'
p199
tp200
Rp201
ag10
(g14
S'\x87^Xe[\xc7m@'
p202
tp203
Rp204
ag10
(g14
S'&G\xa4\xfa\xc4\x96p@'
p205
tp206
Rp207
ag10
(g14
S'k\xa6\xce\xdd\xc3\xb9n@'
p208
tp209
Rp210
ag10
(g14
S'\x9e \x1b\t <m@'
p211
tp212
Rp213
ag10
(g14
S'1\xe8,\xd1Q\xc7j@'
p214
tp215
Rp216
ag10
(g14
S'^6\x1a"sjg@'
p217
tp218
Rp219
ag10
(g14
S'\xf4\x0f\xa3\xed\xb7\x94d@'
p220
tp221
Rp222
ag10
(g14
S'\xdd\x07\xe0Bi\x95c@'
p223
tp224
Rp225
ag10
(g14
S'\x96\xb3\x94\xdb\x16sd@'
p226
tp227
Rp228
ag10
(g14
S'\xa2^\xcb\x07\x91\xe0a@'
p229
tp230
Rp231
ag10
(g14
S'\x12\xb0<\x1d\xe4\xfe]@'
p232
tp233
Rp234
ag10
(g14
S'>3S\xfb\xd8\x06]@'
p235
tp236
Rp237
ag10
(g14
S',\xd1\x9ap\x8e]_@'
p238
tp239
Rp240
ag10
(g14
S'\xbc\xb8\xcd\x0c@~_@'
p241
tp242
Rp243
ag10
(g14
S'F\x81\x04d\xea<`@'
p244
tp245
Rp246
ag10
(g14
S'|\xf6\xaf\x8b\x80\xdba@'
p247
tp248
Rp249
ag10
(g14
S'Z)]\xf5]\x91`@'
p250
tp251
Rp252
ag10
(g14
S'd\x928o\x9f.a@'
p253
tp254
Rp255
ag10
(g14
S'\xae\x14S\xee\xb7wb@'
p256
tp257
Rp258
ag10
(g14
S'X\xcf%+\x16;_@'
p259
tp260
Rp261
ag10
(g14
S'*\xe8 \xe11\x98a@'
p262
tp263
Rp264
ag10
(g14
S'\xb2\xe1\xac\xeas\x18a@'
p265
tp266
Rp267
ag10
(g14
S'\xcaP\xd6\xec\xd3\xa2a@'
p268
tp269
Rp270
asa(dp271
g4
(lp272
I60
aI70
aI80
aI90
aI100
aI110
aI120
aI130
aI140
aI150
aI160
aI170
aI180
aI190
aI200
aI210
aI220
aI230
aI240
aI250
aI260
aI270
aI280
aI290
aI300
aI310
aI320
asg6
(lp273
I117
aI111
aI165
aI159
aI121
aI125
aI139
aI114
aI115
aI125
aI130
aI126
aI123
aI115
aI113
aI117
aI117
aI120
aI132
aI121
aI129
aI129
aI126
aI118
aI116
aI115
aI124
asg8
(lp274
g10
(g14
S'\x10X\xca4\x93\xces@'
p275
tp276
Rp277
ag10
(g14
S'V\x84O\xc162q@'
p278
tp279
Rp280
ag10
(g14
S'\xbd\x0f\xfc\xfb\xef\xa7y@'
p281
tp282
Rp283
ag10
(g14
S'\xb32\x95\xf0\xb3.y@'
p284
tp285
Rp286
ag10
(g14
S'\xdc.\x1ex\xf1\xd3s@'
p287
tp288
Rp289
ag10
(g14
S'Ra\x949\x7fKr@'
p290
tp291
Rp292
ag10
(g14
S'\xb0\xad\xc92\x040r@'
p293
tp294
Rp295
ag10
(g14
S'\x18\xa5b\\\xaf\x92m@'
p296
tp297
Rp298
ag10
(g14
S'l^\xac(\xbf\xc8m@'
p299
tp300
Rp301
ag10
(g14
S'xw\xcd\xb9/$p@'
p302
tp303
Rp304
ag10
(g14
S'f-\xb5ro\x91o@'
p305
tp306
Rp307
ag10
(g14
S']T\x8bIX\xfdl@'
p308
tp309
Rp310
ag10
(g14
S'7\nK\x8b\x03\x12k@'
p311
tp312
Rp313
ag10
(g14
S',\n\x9f\r\x8d\xabe@'
p314
tp315
Rp316
ag10
(g14
S'&\xd4%\xb8\xa4\x95e@'
p317
tp318
Rp319
ag10
(g14
S'\x9d\xa1\xcc\xba:\x96e@'
p320
tp321
Rp322
ag10
(g14
S'\xc6\x9f\xdd\xa6#7d@'
p323
tp324
Rp325
ag10
(g14
S'\xae&pWW\xcdd@'
p326
tp327
Rp328
ag10
(g14
S'*\xbb\xe0\xe2D\x07g@'
p329
tp330
Rp331
ag10
(g14
S'\xfc-@\xa2\xef\x89c@'
p332
tp333
Rp334
ag10
(g14
S'\n\xad\x12\x9e\x87\x94d@'
p335
tp336
Rp337
ag10
(g14
S'\x8e\x9c\xf9\x1cVZe@'
p338
tp339
Rp340
ag10
(g14
S'\x1c\xac)\x8d\xe6\x1fd@'
p341
tp342
Rp343
ag10
(g14
S'\t]x\xe5t\xeba@'
p344
tp345
Rp346
ag10
(g14
S'<\x08\xe4\xa6\x17\xf3`@'
p347
tp348
Rp349
ag10
(g14
S'\xb7\xbb\xae4%e`@'
p350
tp351
Rp352
ag10
(g14
S'\xb6\x1fA\xcf\x06=b@'
p353
tp354
Rp355
asa(dp356
g4
(lp357
I40
aI50
aI60
aI70
aI80
aI90
aI100
aI110
aI120
aI130
aI140
aI150
aI160
aI170
aI180
aI190
aI200
aI210
aI220
aI230
aI240
aI250
aI260
aI270
aI280
aI290
aI300
aI310
aI320
asg6
(lp358
I131
aI98
aI78
aI88
aI83
aI76
aI128
aI120
aI115
aI109
aI113
aI96
aI100
aI120
aI116
aI122
aI112
aI115
aI112
aI113
aI107
aI117
aI122
aI139
aI124
aI124
aI120
aI126
aI119
asg8
(lp359
g10
(g14
S'C\xc3kX\xc44|@'
p360
tp361
Rp362
ag10
(g14
S'R\xad\x92\xcb\xe3az@'
p363
tp364
Rp365
ag10
(g14
S'\xd5\x8by\xb9\x8f\xb0r@'
p366
tp367
Rp368
ag10
(g14
S';|\x84\xbb\x02\xcat@'
p369
tp370
Rp371
ag10
(g14
S'\xd3\xd2\x02\xcdj\xe2q@'
p372
tp373
Rp374
ag10
(g14
S'\xc1s\xd1\xdf\xfc\x0bj@'
p375
tp376
Rp377
ag10
(g14
S'\xee_\xfdX\x07\x05u@'
p378
tp379
Rp380
ag10
(g14
S'\x8fH\xec \x94\x03s@'
p381
tp382
Rp383
ag10
(g14
S'A8\x91\xc3T\xfdo@'
p384
tp385
Rp386
ag10
(g14
S'\x12\xc1\x7f\x1f\xef>l@'
p387
tp388
Rp389
ag10
(g14
S'\xff\xa7\xa9L\xdb\xa6j@'
p390
tp391
Rp392
ag10
(g14
S'\x80\xa4\xeb\xe9m\rc@'
p393
tp394
Rp395
ag10
(g14
S'\xdd\x96\x1fO8\x05d@'
p396
tp397
Rp398
ag10
(g14
S'\xba\xe92q\xe7\xbbg@'
p399
tp400
Rp401
ag10
(g14
S':H\xf5}\xff\x84f@'
p402
tp403
Rp404
ag10
(g14
S'XB7\xf3V\x03h@'
p405
tp406
Rp407
ag10
(g14
S'<Q$.\x03\xdbc@'
p408
tp409
Rp410
ag10
(g14
S'\x18\x8d&\xa7r\x0cd@'
p411
tp412
Rp413
ag10
(g14
S'\xe4\xb5<\x8aU\xa1b@'
p414
tp415
Rp416
ag10
(g14
S'\xf6\xf8C\xaf\xc2_b@'
p417
tp418
Rp419
ag10
(g14
S'\x83Q:I\x19H`@'
p420
tp421
Rp422
ag10
(g14
S'L:\xca\xa1\xd4\xcda@'
p423
tp424
Rp425
ag10
(g14
S'\xcfHp\xc1\xbe\\b@'
p426
tp427
Rp428
ag10
(g14
S'&W\x17$\xbd^f@'
p429
tp430
Rp431
ag10
(g14
S'\xc3\xb2g\xbd\x9b\xe0b@'
p432
tp433
Rp434
ag10
(g14
S'\xbe\xf8\x82P\xa6$b@'
p435
tp436
Rp437
ag10
(g14
S'\xac\xec\x18U\xd2\x83a@'
p438
tp439
Rp440
ag10
(g14
S'\xf7z\x8cV\xf38b@'
p441
tp442
Rp443
ag10
(g14
S'\xda\x8f\xa8rd\xe4`@'
p444
tp445
Rp446
asa(dp447
g4
(lp448
I80
aI90
aI100
aI110
aI120
aI130
aI140
aI150
aI160
aI170
aI180
aI190
aI200
aI210
aI220
aI230
aI240
aI250
aI260
aI270
aI280
aI290
aI300
aI310
aI320
aI330
aI340
aI350
asg6
(lp449
I107
aI188
aI166
aI125
aI134
aI105
aI130
aI126
aI109
aI105
aI99
aI94
aI95
aI93
aI98
aI109
aI104
aI110
aI108
aI104
aI107
aI107
aI117
aI126
aI122
aI113
aI124
aI117
asg8
(lp450
g10
(g14
S'\xe5\xcd\x0b\xbeM/p@'
p451
tp452
Rp453
ag10
(g14
S'(\xeb\x8d"l\xd3{@'
p454
tp455
Rp456
ag10
(g14
S'I3n\x8a2\x1c{@'
p457
tp458
Rp459
ag10
(g14
S'\xf9u\xc9\xad \x9ft@'
p460
tp461
Rp462
ag10
(g14
S'\xa5\r&1o\xf2t@'
p463
tp464
Rp465
ag10
(g14
S'g\xea\x96\xd4\x1d]m@'
p466
tp467
Rp468
ag10
(g14
S'\x05\xad\x7f=\xccTs@'
p469
tp470
Rp471
ag10
(g14
S'\xe8+\xe2H\xe6\x9fq@'
p472
tp473
Rp474
ag10
(g14
S'\x04\xa7\x94f\x02\xb9k@'
p475
tp476
Rp477
ag10
(g14
S'v\x15\xeaI]\xc0h@'
p478
tp479
Rp480
ag10
(g14
S'\x7f\x15\xef\x13+\xf6e@'
p481
tp482
Rp483
ag10
(g14
S'&\x0e\xfc\x04\x9c\xecb@'
p484
tp485
Rp486
ag10
(g14
S'\xeeZJA\x98\x8db@'
p487
tp488
Rp489
ag10
(g14
S' T\xee(\x0fy`@'
p490
tp491
Rp492
ag10
(g14
S'\x1cN\xf9\xee\x01\xf5`@'
p493
tp494
Rp495
ag10
(g14
S'P\xd3L\xa4\x91\xe5b@'
p496
tp497
Rp498
ag10
(g14
S'\x08\x97\xdb\xb0\xa8?a@'
p499
tp500
Rp501
ag10
(g14
S'8\x98#\xacq\x97a@'
p502
tp503
Rp504
ag10
(g14
S'Q\x8b\xd9v\xd4\xa7`@'
p505
tp506
Rp507
ag10
(g14
S'RE$p\xade_@'
p508
tp509
Rp510
ag10
(g14
S'v\x13Q\xf9R\x82_@'
p511
tp512
Rp513
ag10
(g14
S'N\x84\xa8Eg\xaf_@'
p514
tp515
Rp516
ag10
(g14
S'\xc82\xd0\xcf\x89La@'
p517
tp518
Rp519
ag10
(g14
S'\x0e\xd0\t\xee\xc0\xf5b@'
p520
tp521
Rp522
ag10
(g14
S'<"`\xb01\xf5a@'
p523
tp524
Rp525
ag10
(g14
S'\xe0\x10\x97$\xae\xbf_@'
p526
tp527
Rp528
ag10
(g14
S"Dc\x7f\xa1'\x1ab@"
p529
tp530
Rp531
ag10
(g14
S'\xba\x96\x92\xda\x0b\x7f`@'
p532
tp533
Rp534
asa(dp535
g4
(lp536
I50
aI60
aI70
aI80
aI90
aI100
aI110
aI120
aI130
aI140
aI150
aI160
aI170
aI180
aI190
aI200
aI210
aI220
aI230
aI240
aI250
aI260
aI270
aI280
aI290
aI300
asg6
(lp537
I114
aI147
aI183
aI172
aI163
aI147
aI153
aI156
aI129
aI126
aI130
aI122
aI125
aI128
aI129
aI124
aI121
aI118
aI110
aI122
aI121
aI118
aI121
aI117
aI119
aI130
asg8
(lp538
g10
(g14
S"d-'ki\x15w@"
p539
tp540
Rp541
ag10
(g14
S"\n\xc1+8\xe4'|@"
p542
tp543
Rp544
ag10
(g14
S'\xf7\xfe\xf6]\x94\x93\x80@'
p545
tp546
Rp547
ag10
(g14
S'@\xbb\xcd\xd2\x12"}@'
p548
tp549
Rp550
ag10
(g14
S'\x981\xc2\xc4\xbdBx@'
p551
tp552
Rp553
ag10
(g14
S'N$\xcf\\J|u@'
p554
tp555
Rp556
ag10
(g14
S'\xd6U\xaf\xe0!2x@'
p557
tp558
Rp559
ag10
(g14
S'$\xde\xc9n^\xc8t@'
p560
tp561
Rp562
ag10
(g14
S'\xb0\xe9k\xee\xa7\xdeo@'
p563
tp564
Rp565
ag10
(g14
S'\xf8\xe0\xe9\x0b \x1cp@'
p566
tp567
Rp568
ag10
(g14
S'\x97\xd9/\xbd\xf3\x93p@'
p569
tp570
Rp571
ag10
(g14
S'o\xc3\x00\xa89\x1cm@'
p572
tp573
Rp574
ag10
(g14
S'\x8e\xf0\xaa\xe0f\x19l@'
p575
tp576
Rp577
ag10
(g14
S"\xfb\xc9~\xd6'\x05j@"
p578
tp579
Rp580
ag10
(g14
S'1\xd8\x84\xe68*j@'
p581
tp582
Rp583
ag10
(g14
S'\xab\x7fAq\x1b\xddg@'
p584
tp585
Rp586
ag10
(g14
S'\xd8\xa9\x8d\xa6\x93\x97e@'
p587
tp588
Rp589
ag10
(g14
S'&xk\xee\xd0uc@'
p590
tp591
Rp592
ag10
(g14
S'\x00\x11\xea-\x8aHa@'
p593
tp594
Rp595
ag10
(g14
S'\xea\x19[|W\xe4c@'
p596
tp597
Rp598
ag10
(g14
S'L\x99=srIc@'
p599
tp600
Rp601
ag10
(g14
S'\xb1\xfc\nI\xd0\x01b@'
p602
tp603
Rp604
ag10
(g14
S'4o\xea\x89\x04\x06b@'
p605
tp606
Rp607
ag10
(g14
S'\x051\x00\xed\xfdoa@'
p608
tp609
Rp610
ag10
(g14
S'f_y6\xb1"a@'
p611
tp612
Rp613
ag10
(g14
S'\x90\x06\xa1m\xa9\x85c@'
p614
tp615
Rp616
asa(dp617
g4
(lp618
I230
aI240
aI250
aI260
aI270
aI280
aI290
aI300
aI310
aI320
aI330
aI340
aI350
aI360
aI370
aI380
aI390
aI400
aI410
aI420
aI430
aI440
aI450
aI460
aI470
aI480
aI490
asg6
(lp619
I63
aI67
aI101
aI73
aI70
aI96
aI90
aI103
aI111
aI112
aI115
aI122
aI119
aI115
aI118
aI115
aI117
aI113
aI110
aI123
aI121
aI123
aI117
aI118
aI116
aI113
aI118
asg8
(lp620
g10
(g14
S'\x86\x1a\xd2\x1e\x87\x0eZ@'
p621
tp622
Rp623
ag10
(g14
S'\xf6\x15\xd2\x16~z^@'
p624
tp625
Rp626
ag10
(g14
S'j\xbb\x03\x8a\xdc\xd5c@'
p627
tp628
Rp629
ag10
(g14
S'\xe0q#\x1a\xa8\x1d_@'
p630
tp631
Rp632
ag10
(g14
S'\x9dy6>\x80L]@'
p633
tp634
Rp635
ag10
(g14
S'\xec\\\xbb@\xfb\xeca@'
p636
tp637
Rp638
ag10
(g14
S'\xeaG\xf7\x0e\xae\xdc`@'
p639
tp640
Rp641
ag10
(g14
S'd\xd2|\xb2\xd7\x14d@'
p642
tp643
Rp644
ag10
(g14
S'\x12\xfa\xb3\x96\xb1\xb2e@'
p645
tp646
Rp647
ag10
(g14
S'\x03\xc2}\xd4C$e@'
p648
tp649
Rp650
ag10
(g14
S'\xa2f-\x97\xf8\xead@'
p651
tp652
Rp653
ag10
(g14
S'\xb2N\xb1i\x81Rf@'
p654
tp655
Rp656
ag10
(g14
S'\x05\xdb\x85f<\xc0d@'
p657
tp658
Rp659
ag10
(g14
S'\xe5\x15\x96yPtc@'
p660
tp661
Rp662
ag10
(g14
S'fDi\xd0\xb7\xd8c@'
p663
tp664
Rp665
ag10
(g14
S'\xa7\xad\xba\tx\xdbb@'
p666
tp667
Rp668
ag10
(g14
S'\x0c\xd0\xe4Unbb@'
p669
tp670
Rp671
ag10
(g14
S'\xcb\x87\xfd\xdd4Va@'
p672
tp673
Rp674
ag10
(g14
S'\xb9\xc6m\x87Ja`@'
p675
tp676
Rp677
ag10
(g14
S'\xa8\xd4;\xa7\xa6\xb4b@'
p678
tp679
Rp680
ag10
(g14
S'\xe8;\x9f\xc1\xbd\xf7a@'
p681
tp682
Rp683
ag10
(g14
S'\xb8\xbd\x1f=\x8a(b@'
p684
tp685
Rp686
ag10
(g14
S'^\x84\xc8\xf0\x7f\xc4`@'
p687
tp688
Rp689
ag10
(g14
S'9\xe1\x1e\xd5\x8e\xe1`@'
p690
tp691
Rp692
ag10
(g14
S' I\x91\x1c\xe3H`@'
p693
tp694
Rp695
ag10
(g14
S'\x06\xf2h\x9e\xd5S_@'
p696
tp697
Rp698
ag10
(g14
S'\x98\xa4\xd4\x11Sa`@'
p699
tp700
Rp701
asa(dp702
g4
(lp703
I40
aI50
aI60
aI70
aI80
aI90
aI100
aI110
aI120
aI130
aI140
aI150
aI160
aI170
aI180
aI190
aI200
aI210
aI220
aI230
aI240
aI250
aI260
aI270
aI280
aI290
aI300
aI310
aI320
aI330
aI340
aI350
asg6
(lp704
I150
aI120
aI174
aI150
aI148
aI179
aI122
aI128
aI121
aI119
aI125
aI119
aI106
aI121
aI104
aI113
aI118
aI100
aI108
aI103
aI113
aI101
aI104
aI119
aI119
aI124
aI112
aI130
aI123
aI119
aI118
aI115
asg8
(lp705
g10
(g14
S'!5s\xcc\xca,\x82@'
p706
tp707
Rp708
ag10
(g14
S'7\xb9\xebr6\xaa\x80@'
p709
tp710
Rp711
ag10
(g14
S'[z:4\r\xa7\x83@'
p712
tp713
Rp714
ag10
(g14
S'\x13bC\x19~\x1c}@'
p715
tp716
Rp717
ag10
(g14
S'IQ\x94\x04\x8f\xc3{@'
p718
tp719
Rp720
ag10
(g14
S'b\xdf\x1f\x05\x9a\x12}@'
p721
tp722
Rp723
ag10
(g14
S'AJ\xc0\xd1\\\xf3u@'
p724
tp725
Rp726
ag10
(g14
S'\xe6\xebr\x11\xd3\xabu@'
p727
tp728
Rp729
ag10
(g14
S'\xa4\xd3P,\x1a\xfer@'
p730
tp731
Rp732
ag10
(g14
S'\xf4\x8a-2\xba\xf2q@'
p733
tp734
Rp735
ag10
(g14
S'`\xd9&\x11\x88sq@'
p736
tp737
Rp738
ag10
(g14
S'\x15\xf5\x80\xbch\xacn@'
p739
tp740
Rp741
ag10
(g14
S'\xf4OI\x9cX\xbbg@'
p742
tp743
Rp744
ag10
(g14
S'\xfd\xb0b\xde\xba\xa1k@'
p745
tp746
Rp747
ag10
(g14
S'\x04\xca\xbcM:\xf4c@'
p748
tp749
Rp750
ag10
(g14
S'\xaa\x13\xb6\xf2@\xcee@'
p751
tp752
Rp753
ag10
(g14
S'\xfckB\x8e\x843f@'
p754
tp755
Rp756
ag10
(g14
S'\xacylubX`@'
p757
tp758
Rp759
ag10
(g14
S'\xec\xabE\xc6\x8csa@'
p760
tp761
Rp762
ag10
(g14
S'\xf54\xeef*\x99_@'
p763
tp764
Rp765
ag10
(g14
S'\xb7P\x04\x8fk\x08b@'
p766
tp767
Rp768
ag10
(g14
S'\x13\xf5#")\xb1]@'
p769
tp770
Rp771
ag10
(g14
S'\x94\x03\xdc\xeb-I^@'
p772
tp773
Rp774
ag10
(g14
S'\x9f, \xe7\xc9\xe4a@'
p775
tp776
Rp777
ag10
(g14
S'\xb0\xac\xb1\x86\xf0\xe8a@'
p778
tp779
Rp780
ag10
(g14
S'\x1a\xac{\x01\x16\x0cc@'
p781
tp782
Rp783
ag10
(g14
S'\xff\xf4\xe6\x9d\x17\x01`@'
p784
tp785
Rp786
ag10
(g14
S'\x8f\xf7\x84f\xcc9c@'
p787
tp788
Rp789
ag10
(g14
S'\xd2\xf6\xd6\x14\xb3\x03b@'
p790
tp791
Rp792
ag10
(g14
S'\xf0\xc1|\x83\x9f\xbc`@'
p793
tp794
Rp795
ag10
(g14
S"'\xbbZ\xa2\xfa\xd1`@"
p796
tp797
Rp798
ag10
(g14
S'\xff\xf3a.\xdfK_@'
p799
tp800
Rp801
asa(dp802
g4
(lp803
I80
aI90
aI100
aI110
aI120
aI130
aI140
aI150
aI160
aI170
aI180
aI190
aI200
aI210
aI220
aI230
aI240
aI250
aI260
aI270
aI280
aI290
aI300
aI310
aI320
aI330
aI340
aI350
asg6
(lp804
I104
aI105
aI81
aI75
aI77
aI109
aI103
aI106
aI108
aI99
aI106
aI98
aI105
aI105
aI110
aI107
aI110
aI104
aI119
aI114
aI117
aI134
aI126
aI124
aI125
aI122
aI119
aI118
asg8
(lp805
g10
(g14
S"\x11-X\x1c'\xbao@"
p806
tp807
Rp808
ag10
(g14
S'\xa3\xd1\x93\xbb=\x89p@'
p809
tp810
Rp811
ag10
(g14
S'\xde\x86JaY\xe0m@'
p812
tp813
Rp814
ag10
(g14
S'h\x9a\x17\x94l\xa8j@'
p815
tp816
Rp817
ag10
(g14
S'\xda\xb6\xb7\xc1\xcb\xc3h@'
p818
tp819
Rp820
ag10
(g14
S"h\xe7\xa5\x98\x1c'o@"
p821
tp822
Rp823
ag10
(g14
S'O\x97\xfc3\xa3\x14l@'
p824
tp825
Rp826
ag10
(g14
S'tg\x05r\xd6tk@'
p827
tp828
Rp829
ag10
(g14
S'\xaa\xa5\x12:\x1d\xfeh@'
p830
tp831
Rp832
ag10
(g14
S'\x95wp\xb4c\xf1e@'
p833
tp834
Rp835
ag10
(g14
S'\x0fd\xee\x00S\xe7e@'
p836
tp837
Rp838
ag10
(g14
S'\xd2\x18jLC\xa5c@'
p839
tp840
Rp841
ag10
(g14
S'\x0b\x97\x86\xba\x81:d@'
p842
tp843
Rp844
ag10
(g14
S'J\xde6(\x88\\d@'
p845
tp846
Rp847
ag10
(g14
S'D9\xf3\xf4c\xa0d@'
p848
tp849
Rp850
ag10
(g14
S'n\x82\xb9\xc3\xac<b@'
p851
tp852
Rp853
ag10
(g14
S'\xb3\xeb\xef\x99\xa8\x8bb@'
p854
tp855
Rp856
ag10
(g14
S"\x91\x8f'S\x8a[`@"
p857
tp858
Rp859
ag10
(g14
S'\x94\xa8\x01\xa1\xffkc@'
p860
tp861
Rp862
ag10
(g14
S',\x060\xd6i\xd8a@'
p863
tp864
Rp865
ag10
(g14
S'X\xcb\x11\x04\xf4^b@'
p866
tp867
Rp868
ag10
(g14
S'z\xd3*0\xa7\xe0e@'
p869
tp870
Rp871
ag10
(g14
S'\xeb\x96\x07\xe3\xf3nc@'
p872
tp873
Rp874
ag10
(g14
S'\x96\xbdM\x14|\xcbb@'
p875
tp876
Rp877
ag10
(g14
S'n\xb4j\x80\x14\x84b@'
p878
tp879
Rp880
ag10
(g14
S'\xf7RsM\xd4\xe3a@'
p881
tp882
Rp883
ag10
(g14
S'C\xa6Zj\x9d\xee`@'
p884
tp885
Rp886
ag10
(g14
S'PT\xeb\n9H`@'
p887
tp888
Rp889
asa(dp890
g4
(lp891
I40
aI50
aI60
aI70
aI80
aI90
aI100
aI110
aI120
aI130
aI140
aI150
aI160
aI170
aI180
aI190
aI200
aI210
aI220
aI230
aI240
aI250
aI260
aI270
aI280
aI290
aI300
asg6
(lp892
I133
aI159
aI143
aI103
aI101
aI139
aI131
aI140
aI125
aI122
aI124
aI119
aI113
aI122
aI108
aI109
aI114
aI125
aI122
aI122
aI119
aI117
aI124
aI121
aI126
aI121
aI122
asg8
(lp893
g10
(g14
S'\xf8\x96\x80_\xcd^|@'
p894
tp895
Rp896
ag10
(g14
S'~\xa3\x03\xbc\x99\x84\x7f@'
p897
tp898
Rp899
ag10
(g14
S'\xd1\xec&9:z}@'
p900
tp901
Rp902
ag10
(g14
S'\xb3\xc9\x80\xa5\xd5\xd7v@'
p903
tp904
Rp905
ag10
(g14
S'U,t\xce\xa3\xefv@'
p906
tp907
Rp908
ag10
(g14
S')9lBY\xc4{@'
p909
tp910
Rp911
ag10
(g14
S'\x90V\x05^\x82\xfdw@'
p912
tp913
Rp914
ag10
(g14
S'E\x7f\xb6\x08\x9e\x94y@'
p915
tp916
Rp917
ag10
(g14
S'\x7f\x88v)i\x92t@'
p918
tp919
Rp920
ag10
(g14
S'\x97!\xf0\xe0\x8a\xd3q@'
p921
tp922
Rp923
ag10
(g14
S'f\xc7\xe7\xdaq\xd7q@'
p924
tp925
Rp926
ag10
(g14
S'\xc8\xc6\xc8\x8e\xa0}m@'
p927
tp928
Rp929
ag10
(g14
S'~\xa3\x8aJ\xa4"i@'
p930
tp931
Rp932
ag10
(g14
S'Vc,s\xc3\xf2k@'
p933
tp934
Rp935
ag10
(g14
S'\xc6\xb0\x8dP\xdaXe@'
p936
tp937
Rp938
ag10
(g14
S'$\xa7+]\x81\x9dc@'
p939
tp940
Rp941
ag10
(g14
S'\rm\xf3\xff\x02\x87c@'
p942
tp943
Rp944
ag10
(g14
S'D\x17J\xc1\xa7\xe9e@'
p945
tp946
Rp947
ag10
(g14
S'\x17M\xcc\xc6Xrd@'
p948
tp949
Rp950
ag10
(g14
S'\xf6D\xf0I\x0f\xb7d@'
p951
tp952
Rp953
ag10
(g14
S'\xd0\xebC<\x17\xefb@'
p954
tp955
Rp956
ag10
(g14
S'\x03\xbb/\xab5\x02b@'
p957
tp958
Rp959
ag10
(g14
S'\x0b\xae=\x99\xf9\xc8b@'
p960
tp961
Rp962
ag10
(g14
S'\x19\x8djA\xbb\x11b@'
p963
tp964
Rp965
ag10
(g14
S'\xe0\xed\x14\xdeY\x1fc@'
p966
tp967
Rp968
ag10
(g14
S'/\x849y\xd2\x84a@'
p969
tp970
Rp971
ag10
(g14
S'\x0e\xa1s\\,Qa@'
p972
tp973
Rp974
asa(dp975
g4
(lp976
I150
aI160
aI170
aI180
aI190
aI200
aI210
aI220
aI230
aI240
aI250
aI260
aI270
aI280
aI290
aI300
aI310
aI320
aI330
aI340
aI350
aI360
aI370
aI380
aI390
aI400
aI410
aI420
aI430
asg6
(lp977
I85
aI93
aI62
aI100
aI97
aI119
aI113
aI104
aI107
aI106
aI112
aI100
aI105
aI98
aI86
aI99
aI107
aI109
aI103
aI109
aI107
aI117
aI123
aI118
aI122
aI120
aI111
aI113
aI112
asg8
(lp978
g10
(g14
S'\x06\xd3\xa3\xc7\x86`c@'
p979
tp980
Rp981
ag10
(g14
S'<\xe3\xde\x1d\xd9Df@'
p982
tp983
Rp984
ag10
(g14
S'`n\x92$$yd@'
p985
tp986
Rp987
ag10
(g14
S'\xb1\x0f\xc7&\xd1\xd9h@'
p988
tp989
Rp990
ag10
(g14
S'Q\t\x855\xdf\xa6g@'
p991
tp992
Rp993
ag10
(g14
S'\xdb\x9dK_\x198k@'
p994
tp995
Rp996
ag10
(g14
S'~+\xa47\xd9\xefi@'
p997
tp998
Rp999
ag10
(g14
S'\xbb\x03=A\x1e=g@'
p1000
tp1001
Rp1002
ag10
(g14
S"3\x93\xa2\xc9'\x96g@"
p1003
tp1004
Rp1005
ag10
(g14
S'\x06\\\xb5,\x0b\xdcf@'
p1006
tp1007
Rp1008
ag10
(g14
S'\x87\xa4]-\x8cQf@'
p1009
tp1010
Rp1011
ag10
(g14
S'\x1c\xfa\xd8\xb3=\xe1b@'
p1012
tp1013
Rp1014
ag10
(g14
S'\xd8\x1b\xd7<(*c@'
p1015
tp1016
Rp1017
ag10
(g14
S'\xea\x8f6\x93\xd1\xe4`@'
p1018
tp1019
Rp1020
ag10
(g14
S'\xda\x9c\x92\nb\x8f[@'
p1021
tp1022
Rp1023
ag10
(g14
S'\x97\x8d\xfcf\x8aw_@'
p1024
tp1025
Rp1026
ag10
(g14
S'd\x0e\x8a\x8f\xcd@a@'
p1027
tp1028
Rp1029
ag10
(g14
S'\x8d\xd5\xb4<\xd0da@'
p1030
tp1031
Rp1032
ag10
(g14
S'\xf8\xb6"\x89\x8d\xcb^@'
p1033
tp1034
Rp1035
ag10
(g14
S'!\xff\xd8\xc1\n\x88`@'
p1036
tp1037
Rp1038
ag10
(g14
S'\xaf1\xefK\xac\x8d_@'
p1039
tp1040
Rp1041
ag10
(g14
S'/qR\x17\xd6Qa@'
p1042
tp1043
Rp1044
ag10
(g14
S'\xd2\xa2\xf6\x96k\xb5b@'
p1045
tp1046
Rp1047
ag10
(g14
S'iM\x9ag\x7f\x83a@'
p1048
tp1049
Rp1050
ag10
(g14
S"eF|'=\x1cb@"
p1051
tp1052
Rp1053
ag10
(g14
S'\xcf\x0e\x97#Y\xb9a@'
p1054
tp1055
Rp1056
ag10
(g14
S'\x92\xf3\xc6\xb5\xb4\xfc^@'
p1057
tp1058
Rp1059
ag10
(g14
S'bI\xef\x1f\x90a_@'
p1060
tp1061
Rp1062
ag10
(g14
S':C1\x89N\xea^@'
p1063
tp1064
Rp1065
asa(dp1066
g4
(lp1067
I40
aI50
aI60
aI70
aI80
aI90
aI100
aI110
aI120
aI130
aI140
aI150
aI160
aI170
aI180
aI190
aI200
aI210
aI220
aI230
aI240
aI250
aI260
aI270
aI280
aI290
aI300
aI310
aI320
aI330
aI340
asg6
(lp1068
I129
aI119
aI194
aI198
aI173
aI150
aI130
aI118
aI114
aI123
aI130
aI126
aI126
aI123
aI123
aI99
aI112
aI117
aI98
aI117
aI119
aI100
aI132
aI112
aI136
aI116
aI113
aI121
aI111
aI117
aI114
asg8
(lp1069
g10
(g14
S'3\xeb\xadG\x98\xe0{@'
p1070
tp1071
Rp1072
ag10
(g14
S'\x80\x88\xac\x19\x80\xaav@'
p1073
tp1074
Rp1075
ag10
(g14
S'\x93\x1fyB\xf3\x05\x82@'
p1076
tp1077
Rp1078
ag10
(g14
S'\xf6\x99\x0f\xff&\xba\x81@'
p1079
tp1080
Rp1081
ag10
(g14
S'\x91\xe2~\x0c#\x94\x7f@'
p1082
tp1083
Rp1084
ag10
(g14
S'\x9ap\xf5O\xafJz@'
p1085
tp1086
Rp1087
ag10
(g14
S'\x9fDm\x84\xbe\x8eu@'
p1088
tp1089
Rp1090
ag10
(g14
S'\xf0\xea\x13\xf7\xfc\x92q@'
p1091
tp1092
Rp1093
ag10
(g14
S'\xfe\xc9#\x82\x0b(p@'
p1094
tp1095
Rp1096
ag10
(g14
S'\xd2P~\xbd\x14Cq@'
p1097
tp1098
Rp1099
ag10
(g14
S'\x94n\xa1\xf1w\x92r@'
p1100
tp1101
Rp1102
ag10
(g14
S'\x08\xeb7\xf0K\xebn@'
p1103
tp1104
Rp1105
ag10
(g14
S'v\xdf\x97\x10m\xf5n@'
p1106
tp1107
Rp1108
ag10
(g14
S'-(J!\xeaJl@'
p1109
tp1110
Rp1111
ag10
(g14
S'"\'\xe3\x19\'\xc3k@'
p1112
tp1113
Rp1114
ag10
(g14
S'\xe4\x0f\xd4m\xa4\xc3`@'
p1115
tp1116
Rp1117
ag10
(g14
S'Xcy\xc4K9d@'
p1118
tp1119
Rp1120
ag10
(g14
S'\xa8\xb5\xee\xfd\xda\x9ce@'
p1121
tp1122
Rp1123
ag10
(g14
S'\x9d\xf50\xe0\x1b\x90^@'
p1124
tp1125
Rp1126
ag10
(g14
S'\xack\xa9\xdb3\xefc@'
p1127
tp1128
Rp1129
ag10
(g14
S'\xa8\xa9p\x16\xfb|c@'
p1130
tp1131
Rp1132
ag10
(g14
S'j\x1c\xb3\x89\xb9;]@'
p1133
tp1134
Rp1135
ag10
(g14
S'\x9c\xd1\x17\xf9\xaaTf@'
p1136
tp1137
Rp1138
ag10
(g14
S'\xf1-,A\xa8\xeb`@'
p1139
tp1140
Rp1141
ag10
(g14
S'\x9e\x85:\x08I\tf@'
p1142
tp1143
Rp1144
ag10
(g14
S']\xfb\xd9,\xc7\xfb`@'
p1145
tp1146
Rp1147
ag10
(g14
S'\x90\x12\xa2\x8fE=`@'
p1148
tp1149
Rp1150
ag10
(g14
S'\xb4`\xc3D\x95\xfda@'
p1151
tp1152
Rp1153
ag10
(g14
S'\xcep\xb8\x0ff\xe6^@'
p1154
tp1155
Rp1156
ag10
(g14
S'\x9d\xaa\x00\xae\xa0\x89`@'
p1157
tp1158
Rp1159
ag10
(g14
S'\xdc2DL\x01h_@'
p1160
tp1161
Rp1162
asa(dp1163
g4
(lp1164
I50
aI60
aI70
aI80
aI90
aI100
aI110
aI120
aI130
aI140
aI150
aI160
aI170
aI180
aI190
aI200
aI210
aI220
aI230
aI240
aI250
aI260
aI270
aI280
aI290
aI300
aI310
aI320
asg6
(lp1165
I121
aI117
aI70
aI73
aI77
aI120
aI123
aI115
aI124
aI105
aI106
aI97
aI95
aI107
aI92
aI102
aI103
aI107
aI104
aI104
aI112
aI107
aI123
aI121
aI117
aI117
aI129
aI119
asg8
(lp1166
g10
(g14
S'w\xe3\xebp\xa5\x95w@'
p1167
tp1168
Rp1169
ag10
(g14
S'\x01\xeb]\x83\x92nv@'
p1170
tp1171
Rp1172
ag10
(g14
S'\xad_\x00\xedLrt@'
p1173
tp1174
Rp1175
ag10
(g14
S'\xc40\xef\x1b\r\x81p@'
p1176
tp1177
Rp1178
ag10
(g14
S'\xea\x19D\x80\x9a;o@'
p1179
tp1180
Rp1181
ag10
(g14
S'T@d35#t@'
p1182
tp1183
Rp1184
ag10
(g14
S'\xdd4m+\xf8\xedr@'
p1185
tp1186
Rp1187
ag10
(g14
S'\xb6Q\xdd\x04\xa4\x92p@'
p1188
tp1189
Rp1190
ag10
(g14
S'\xac\x13 \xd94\xa9q@'
p1191
tp1192
Rp1193
ag10
(g14
S'u\xfby\x08\n\xa2i@'
p1194
tp1195
Rp1196
ag10
(g14
S'\xd4!\xcb\xcb=9h@'
p1197
tp1198
Rp1199
ag10
(g14
S'\xcab\x07\xd5\xd0\xf6c@'
p1200
tp1201
Rp1202
ag10
(g14
S'XDv\x9da(b@'
p1203
tp1204
Rp1205
ag10
(g14
S'h\xfeD\xd9c\xb7d@'
p1206
tp1207
Rp1208
ag10
(g14
S'\xb3\xa7L\xc8\xa9\xc4_@'
p1209
tp1210
Rp1211
ag10
(g14
S'6W?\x80\xd5\xb7a@'
p1212
tp1213
Rp1214
ag10
(g14
S'\xde\xcb.t6\xf6`@'
p1215
tp1216
Rp1217
ag10
(g14
S'\xd8\xb1\x95H\xce\xfba@'
p1218
tp1219
Rp1220
ag10
(g14
S'\x97\xc3Y\x7fW\x8d`@'
p1221
tp1222
Rp1223
ag10
(g14
S'\xe3\x1fV\xd5\x9a\x85_@'
p1224
tp1225
Rp1226
ag10
(g14
S'vb6\xa3V\x07a@'
p1227
tp1228
Rp1229
ag10
(g14
S'\xee\xfe\x8aX\xabx_@'
p1230
tp1231
Rp1232
ag10
(g14
S'\xbb; \xbe\x80\xe7b@'
p1233
tp1234
Rp1235
ag10
(g14
S'$\xcb[\xf2\x7f\xeaa@'
p1236
tp1237
Rp1238
ag10
(g14
S'(Z\xf3\x01\x9b\xff`@'
p1239
tp1240
Rp1241
ag10
(g14
S'v\xa0D\x02\xd2\xa9`@'
p1242
tp1243
Rp1244
ag10
(g14
S'5*\x15\x02\xeb~c@'
p1245
tp1246
Rp1247
ag10
(g14
S't\xa9\xb7\xc0\x19\xb6`@'
p1248
tp1249
Rp1250
asa(dp1251
g4
(lp1252
I140
aI150
aI160
aI170
aI180
aI190
aI200
aI210
aI220
aI230
aI240
aI250
aI260
aI270
aI280
aI290
aI300
aI310
aI320
aI330
aI340
aI350
aI360
aI370
aI380
aI390
asg6
(lp1253
I85
aI70
aI70
aI70
aI67
aI68
aI106
aI111
aI106
aI104
aI102
aI106
aI98
aI97
aI98
aI101
aI111
aI116
aI108
aI110
aI109
aI121
aI126
aI127
aI124
aI125
asg8
(lp1254
g10
(g14
S'\x98\xb1\xab\xb4\n\rd@'
p1255
tp1256
Rp1257
ag10
(g14
S',@|\x0f\xd6he@'
p1258
tp1259
Rp1260
ag10
(g14
S'\xb0 4\xdes\x85c@'
p1261
tp1262
Rp1263
ag10
(g14
S',V>^\x91\x0ec@'
p1264
tp1265
Rp1266
ag10
(g14
S'\x08\xb32\x1e\x9bp`@'
p1267
tp1268
Rp1269
ag10
(g14
S'v&3\xacKF`@'
p1270
tp1271
Rp1272
ag10
(g14
S'py5\xbe\x82\xb9g@'
p1273
tp1274
Rp1275
ag10
(g14
S'2\xc0R\xff\xf7\xa8g@'
p1276
tp1277
Rp1278
ag10
(g14
S'\xc6O\x02\xe3\xa0\xacf@'
p1279
tp1280
Rp1281
ag10
(g14
S'2\xbaX4\xecFe@'
p1282
tp1283
Rp1284
ag10
(g14
S'\x12\x86\x8e\xdc\xa7mc@'
p1285
tp1286
Rp1287
ag10
(g14
S'\xbe(<\xa9\xc5\x98c@'
p1288
tp1289
Rp1290
ag10
(g14
S'V\x02\xcc\xf6\x16\x0ba@'
p1291
tp1292
Rp1293
ag10
(g14
S'\\\x86\xbd\x18\xadF`@'
p1294
tp1295
Rp1296
ag10
(g14
S'\x7f\x01\xdcpN\x1a`@'
p1297
tp1298
Rp1299
ag10
(g14
S'\x96\xad\x11\x88\xb0\x92`@'
p1300
tp1301
Rp1302
ag10
(g14
S'g\xf6\xccpm\x0eb@'
p1303
tp1304
Rp1305
ag10
(g14
S'\x98\x94\xe8\x84K\xdab@'
p1306
tp1307
Rp1308
ag10
(g14
S'\x147J(\x17\xfd`@'
p1309
tp1310
Rp1311
ag10
(g14
S'p>\xc6\xc5\x8a\x84`@'
p1312
tp1313
Rp1314
ag10
(g14
S'\x97q\x7f\x83\xb2;`@'
p1315
tp1316
Rp1317
ag10
(g14
S'B\x8cQ\x8fh!b@'
p1318
tp1319
Rp1320
ag10
(g14
S'=\xac\xa9Q)\xeab@'
p1321
tp1322
Rp1323
ag10
(g14
S'\x0e\xec%$\x96\\b@'
p1324
tp1325
Rp1326
ag10
(g14
S'\xf9{\xc8\xa1)\xe0a@'
p1327
tp1328
Rp1329
ag10
(g14
S'{=\x1d\xab\xf1\x9ea@'
p1330
tp1331
Rp1332
asa(dp1333
g4
(lp1334
I550
aI560
aI570
aI580
aI590
aI600
aI610
aI620
aI630
aI640
aI650
aI660
aI670
aI680
aI690
aI700
aI710
aI720
aI730
aI740
aI750
aI760
aI770
aI780
aI790
aI800
aI810
aI820
aI830
aI840
asg6
(lp1335
I33
aI41
aI52
aI55
aI46
aI47
aI51
aI105
aI107
aI99
aI94
aI91
aI85
aI98
aI99
aI102
aI104
aI102
aI103
aI97
aI98
aI97
aI98
aI106
aI112
aI116
aI112
aI117
aI117
aI112
asg8
(lp1336
g10
(g14
S'?x\x03fy\xbfG@'
p1337
tp1338
Rp1339
ag10
(g14
S'\x8fc\x11e\xcc\xd5L@'
p1340
tp1341
Rp1342
ag10
(g14
S'\x81\xf8\x82&\xc9\x81Q@'
p1343
tp1344
Rp1345
ag10
(g14
S'\xea\x1f\xc1\x0b\x97\xe4R@'
p1346
tp1347
Rp1348
ag10
(g14
S'\xfa\xf6B\x01 \xd9P@'
p1349
tp1350
Rp1351
ag10
(g14
S'V\xec\xb3\xbe\x15\xc2P@'
p1352
tp1353
Rp1354
ag10
(g14
S'\x96k\xd0v\xec\x01Q@'
p1355
tp1356
Rp1357
ag10
(g14
S'^\xc9\xad~\xe0\xaaa@'
p1358
tp1359
Rp1360
ag10
(g14
S'b\xeb\xf0Vaua@'
p1361
tp1362
Rp1363
ag10
(g14
S'W\x9f\xed\xcb-\xb8_@'
p1364
tp1365
Rp1366
ag10
(g14
S'\x0b\xf6\xda\x8f\xa9\x96]@'
p1367
tp1368
Rp1369
ag10
(g14
S'H\x12v\x9a\xf54\\@'
p1370
tp1371
Rp1372
ag10
(g14
S'\x91\xcfsY\x04\x9cY@'
p1373
tp1374
Rp1375
ag10
(g14
S'\xbfz\xf3\x998\xa6]@'
p1376
tp1377
Rp1378
ag10
(g14
S'\x04R\x9b/\xf6\xd0\\@'
p1379
tp1380
Rp1381
ag10
(g14
S'M\xe2|\x10\xa9\x0c^@'
p1382
tp1383
Rp1384
ag10
(g14
S'~\xf5\xb1\xd9>\xbb]@'
p1385
tp1386
Rp1387
ag10
(g14
S'\xb0\x9b\xba5\xa8d]@'
p1388
tp1389
Rp1390
ag10
(g14
S'/\xa3\xaf0\xe6\xfe\\@'
p1391
tp1392
Rp1393
ag10
(g14
S'\xfb\x80\xcf\xcdh:[@'
p1394
tp1395
Rp1396
ag10
(g14
S'V\x03\x81\xd6\x97N[@'
p1397
tp1398
Rp1399
ag10
(g14
S'\x12\x1aYs\x01sZ@'
p1400
tp1401
Rp1402
ag10
(g14
S'\xd4\x91G\x1c\xdf\xd4Z@'
p1403
tp1404
Rp1405
ag10
(g14
S'\xc6\x85\xee\xa6\x95\xc1\\@'
p1406
tp1407
Rp1408
ag10
(g14
S'\xc6\xf6\xbc\xfc\x99\xa2^@'
p1409
tp1410
Rp1411
ag10
(g14
S'PC\xca*\xd0\xb6_@'
p1412
tp1413
Rp1414
ag10
(g14
S"\x87\x9a't\xe3X^@"
p1415
tp1416
Rp1417
ag10
(g14
S'8!\xb7\xa8\xd4\x8e_@'
p1418
tp1419
Rp1420
ag10
(g14
S'7\x0bSxQW_@'
p1421
tp1422
Rp1423
ag10
(g14
S'\xd6_{\xaa\xbd\xbe]@'
p1424
tp1425
Rp1426
asa(dp1427
g4
(lp1428
I40
aI50
aI60
aI70
aI80
aI90
aI100
aI110
aI120
aI130
aI140
aI150
aI160
aI170
aI180
aI190
aI200
aI210
aI220
aI230
aI240
aI250
aI260
aI270
aI280
aI290
aI300
aI310
aI320
aI330
aI340
aI350
asg6
(lp1429
I125
aI103
aI74
aI148
aI123
aI151
aI132
aI115
aI114
aI122
aI121
aI105
aI108
aI99
aI106
aI108
aI113
aI109
aI106
aI112
aI109
aI110
aI113
aI120
aI115
aI115
aI117
aI113
aI122
aI114
aI117
aI115
asg8
(lp1430
g10
(g14
S'&UE\xc0qd{@'
p1431
tp1432
Rp1433
ag10
(g14
S'\x83\x12\xfb6Fqz@'
p1434
tp1435
Rp1436
ag10
(g14
S'4[!\xa1\xa6\x98r@'
p1437
tp1438
Rp1439
ag10
(g14
S'\xc1\xb9\x11\xb3\n\xc8}@'
p1440
tp1441
Rp1442
ag10
(g14
S'\x0e\n\xd5\x90*\xb2t@'
p1443
tp1444
Rp1445
ag10
(g14
S'+D\xf3\xcck\xf5{@'
p1446
tp1447
Rp1448
ag10
(g14
S'\xa0l\xfa \x0f\xcas@'
p1449
tp1450
Rp1451
ag10
(g14
S'di\xc9\xa4\x8d\xa8r@'
p1452
tp1453
Rp1454
ag10
(g14
S'\x04E\x82\xa0\xa6\xbaq@'
p1455
tp1456
Rp1457
ag10
(g14
S'\x13L\xf8K\x13\x82r@'
p1458
tp1459
Rp1460
ag10
(g14
S'q\xc9\x18\xb8\xee\xfcp@'
p1461
tp1462
Rp1463
ag10
(g14
S"v(S\x93'Ci@"
p1464
tp1465
Rp1466
ag10
(g14
S'\xe5\xf9o\x9b\xb3hh@'
p1467
tp1468
Rp1469
ag10
(g14
S'\x8c\xb0\x12\xcfR\xbbb@'
p1470
tp1471
Rp1472
ag10
(g14
S'~\xb7S\xbb\xa4Cd@'
p1473
tp1474
Rp1475
ag10
(g14
S'd\xf2\x91\x89\x0f\xfbc@'
p1476
tp1477
Rp1478
ag10
(g14
S',~\x1e.\xd03d@'
p1479
tp1480
Rp1481
ag10
(g14
S'\x19\xe71\xe6}\xc9b@'
p1482
tp1483
Rp1484
ag10
(g14
S'\xca\xff\xed]\xaaJa@'
p1485
tp1486
Rp1487
ag10
(g14
S'`\xce\xa1\xee\x8e\x85b@'
p1488
tp1489
Rp1490
ag10
(g14
S'r\x1d\xb6\x81\xcd.a@'
p1491
tp1492
Rp1493
ag10
(g14
S'\xc8t\x80\xd0\xd4\xb6`@'
p1494
tp1495
Rp1496
ag10
(g14
S'\xe2\xb3\x0e&\xf21a@'
p1497
tp1498
Rp1499
ag10
(g14
S'\x12X\xd5q\x1d3b@'
p1500
tp1501
Rp1502
ag10
(g14
S'Q\xb8\x96~\xbd5a@'
p1503
tp1504
Rp1505
ag10
(g14
S'b\xd3 \xaf\xa2\xc6`@'
p1506
tp1507
Rp1508
ag10
(g14
S'\x92\xa0\x199\xe7\x0fa@'
p1509
tp1510
Rp1511
ag10
(g14
S'\\O\x0f76\xf7_@'
p1512
tp1513
Rp1514
ag10
(g14
S'(\xbec\x1d\x84\xeda@'
p1515
tp1516
Rp1517
ag10
(g14
S'\x1b\xd2Y\x0e*\x08`@'
p1518
tp1519
Rp1520
ag10
(g14
S'\x85C\x18\xf3m``@'
p1521
tp1522
Rp1523
ag10
(g14
S'\xca\xd9\xf9\x8e"\xbd_@'
p1524
tp1525
Rp1526
asa(dp1527
g4
(lp1528
I90
aI100
aI110
aI120
aI130
aI140
aI150
aI160
aI170
aI180
aI190
aI200
aI210
aI220
aI230
aI240
aI250
aI260
aI270
aI280
aI290
aI300
aI310
aI320
aI330
aI340
aI350
aI360
aI370
asg6
(lp1529
I97
aI99
aI61
aI62
aI59
aI124
aI117
aI122
aI112
aI124
aI122
aI114
aI139
aI119
aI113
aI108
aI112
aI112
aI120
aI110
aI113
aI110
aI113
aI125
aI125
aI122
aI115
aI117
aI121
asg8
(lp1530
g10
(g14
S'W\x98\x91\x8a2Rl@'
p1531
tp1532
Rp1533
ag10
(g14
S'?\x17`\xf70Ao@'
p1534
tp1535
Rp1536
ag10
(g14
S'\xb0\x9co9]\xdfh@'
p1537
tp1538
Rp1539
ag10
(g14
S'\xd1NC\x0c\xae/d@'
p1540
tp1541
Rp1542
ag10
(g14
S'\xdfx]\xe2\xce2b@'
p1543
tp1544
Rp1545
ag10
(g14
S'\xde\xb5|c\xf2\x00s@'
p1546
tp1547
Rp1548
ag10
(g14
S'\rd\n\xecU\nq@'
p1549
tp1550
Rp1551
ag10
(g14
S'F\xc1\x92\x1e\x12\xd6p@'
p1552
tp1553
Rp1554
ag10
(g14
S'\xf8\xc4+\xaf]\x98k@'
p1555
tp1556
Rp1557
ag10
(g14
S'tcT`\x08no@'
p1558
tp1559
Rp1560
ag10
(g14
S'\xba8I6tWm@'
p1561
tp1562
Rp1563
ag10
(g14
S'\x9dg\x12\x01+\ti@'
p1564
tp1565
Rp1566
ag10
(g14
S'.n\xcc\x05:\x15o@'
p1567
tp1568
Rp1569
ag10
(g14
S'g\xccF\xff\x9e\x9ah@'
p1570
tp1571
Rp1572
ag10
(g14
S'\xbbU\x93\x9f\xd9\xfae@'
p1573
tp1574
Rp1575
ag10
(g14
S'\xab\x14.\x96N\xe6c@'
p1576
tp1577
Rp1578
ag10
(g14
S'**:\xd8\r\x04d@'
p1579
tp1580
Rp1581
ag10
(g14
S'f\x11\xa64\x90?c@'
p1582
tp1583
Rp1584
ag10
(g14
S'\xd2T\xb3\xb5\xf4zd@'
p1585
tp1586
Rp1587
ag10
(g14
S'>\x88\xe4!\x89\x9ba@'
p1588
tp1589
Rp1590
ag10
(g14
S'\xfa4\x98\xcd@\xa1a@'
p1591
tp1592
Rp1593
ag10
(g14
S'\xc8\xce\x0cE\x83\xc7`@'
p1594
tp1595
Rp1596
ag10
(g14
S'\xf8q\xde\x05\x88\x9d`@'
p1597
tp1598
Rp1599
ag10
(g14
S'\xb0\xf4`\xdb\x0ctc@'
p1600
tp1601
Rp1602
ag10
(g14
S'\x908\x1a\x0e/(c@'
p1603
tp1604
Rp1605
ag10
(g14
S'\x98\xdd\xd4\x87\xea,b@'
p1606
tp1607
Rp1608
ag10
(g14
S'N\x9cXk\xd1G`@'
p1609
tp1610
Rp1611
ag10
(g14
S'\xbeM\xf3\xe3\xa6\x88`@'
p1612
tp1613
Rp1614
ag10
(g14
S'\xd0\xdd\x1a\xa1#\xf0`@'
p1615
tp1616
Rp1617
asa(dp1618
g4
(lp1619
I90
aI100
aI110
aI120
aI130
aI140
aI150
aI160
aI170
aI180
aI190
aI200
aI210
aI220
aI230
aI240
aI250
aI260
aI270
aI280
aI290
aI300
aI310
aI320
aI330
aI340
aI350
aI360
aI370
asg6
(lp1620
I99
aI130
aI70
aI79
aI77
aI109
aI96
aI97
aI98
aI117
aI118
aI103
aI100
aI99
aI109
aI97
aI99
aI97
aI99
aI98
aI108
aI106
aI110
aI113
aI115
aI119
aI118
aI121
aI114
asg8
(lp1621
g10
(g14
S'\xa1\xcdB\x84\xf9{l@'
p1622
tp1623
Rp1624
ag10
(g14
S'\xfa\xfe\xc2\xbb\x14\xf2q@'
p1625
tp1626
Rp1627
ag10
(g14
S'\xad\xbe\x9ek\x92\x1bg@'
p1628
tp1629
Rp1630
ag10
(g14
S'lU\x1f\xa0\x97\x8cg@'
p1631
tp1632
Rp1633
ag10
(g14
S'\x1f=>o\xbe+f@'
p1634
tp1635
Rp1636
ag10
(g14
S'\x8ev;\xc7\xbb\xa3j@'
p1637
tp1638
Rp1639
ag10
(g14
S'4\xe9\xc6\x11\xb5\xe6g@'
p1640
tp1641
Rp1642
ag10
(g14
S'\xa0\xa4[\xfe6Wg@'
p1643
tp1644
Rp1645
ag10
(g14
S'\x1a1\\t\xce\xfcf@'
p1646
tp1647
Rp1648
ag10
(g14
S')\x9b?y\x07\xe7j@'
p1649
tp1650
Rp1651
ag10
(g14
S'\xe3\xd7D\x0e`\xe9j@'
p1652
tp1653
Rp1654
ag10
(g14
S'\xfbX\x15\\@se@'
p1655
tp1656
Rp1657
ag10
(g14
S'\xfe\xe5\xc0)\xa1\xa7c@'
p1658
tp1659
Rp1660
ag10
(g14
S'?\x08b\xe6&Qb@'
p1661
tp1662
Rp1663
ag10
(g14
S'\xcf\x19\x8a\xce:Md@'
p1664
tp1665
Rp1666
ag10
(g14
S'\xbc\x83n\xc9U\xe0_@'
p1667
tp1668
Rp1669
ag10
(g14
S'\xd2\x19t!\x9d\xb7`@'
p1670
tp1671
Rp1672
ag10
(g14
S'\xc9E\xd2CeT^@'
p1673
tp1674
Rp1675
ag10
(g14
S'\xa0w\xf3\x82\x93\x02^@'
p1676
tp1677
Rp1678
ag10
(g14
S'\x9dS\t\x8f\xbc\x19]@'
p1679
tp1680
Rp1681
ag10
(g14
S'\x88\n\x16\x0f[E`@'
p1682
tp1683
Rp1684
ag10
(g14
S'\x90&\x19\x83f\x14_@'
p1685
tp1686
Rp1687
ag10
(g14
S'\xc6\xeb\xe1\x1f\xe5\x12`@'
p1688
tp1689
Rp1690
ag10
(g14
S'u\x89\xf5zfh`@'
p1691
tp1692
Rp1693
ag10
(g14
S'\x98v\xf64\xdc\xe2`@'
p1694
tp1695
Rp1696
ag10
(g14
S'\xe9\x9frvjda@'
p1697
tp1698
Rp1699
ag10
(g14
S'\xaf\xcb\x1d\xc2\x01\x01a@'
p1700
tp1701
Rp1702
ag10
(g14
S'p\x9b\xaf\r\x15\x15a@'
p1703
tp1704
Rp1705
ag10
(g14
S'L\xd4\x8b\xdb\xb8b_@'
p1706
tp1707
Rp1708
asa(dp1709
g4
(lp1710
I60
aI70
aI80
aI90
aI100
aI110
aI120
aI130
aI140
aI150
aI160
aI170
aI180
aI190
aI200
aI210
aI220
aI230
aI240
aI250
aI260
aI270
aI280
aI290
aI300
aI310
aI320
asg6
(lp1711
I116
aI155
aI139
aI96
aI111
aI107
aI120
aI119
aI120
aI104
aI112
aI126
aI111
aI115
aI111
aI113
aI114
aI124
aI108
aI121
aI123
aI115
aI125
aI122
aI117
aI116
aI120
asg8
(lp1712
g10
(g14
S'\xaaD\x95\xfb\x88\xe7s@'
p1713
tp1714
Rp1715
ag10
(g14
S'\x05Y\x13`\xb4\x03z@'
p1716
tp1717
Rp1718
ag10
(g14
S'`\xb08\xceu\x98x@'
p1719
tp1720
Rp1721
ag10
(g14
S'\xbd\x81%-\x1e!s@'
p1722
tp1723
Rp1724
ag10
(g14
S'4\xa17%\x83\xa6r@'
p1725
tp1726
Rp1727
ag10
(g14
S'\xf8\xa4=\x04\x10\x81o@'
p1728
tp1729
Rp1730
ag10
(g14
S'@\xc7\xf0\x0e\xc8|q@'
p1731
tp1732
Rp1733
ag10
(g14
S'J%+\x8b\xb6Fq@'
p1734
tp1735
Rp1736
ag10
(g14
S'\x96<\x96\x87\xc0,p@'
p1737
tp1738
Rp1739
ag10
(g14
S'L)6EP\x92h@'
p1740
tp1741
Rp1742
ag10
(g14
S'H\x84\x9b\x94\x9c\xb9i@'
p1743
tp1744
Rp1745
ag10
(g14
S'\x12\x99$\x10\x83hl@'
p1746
tp1747
Rp1748
ag10
(g14
S'N>\xae\xf6\xe4>g@'
p1749
tp1750
Rp1751
ag10
(g14
S'<\xeb\xee\xb6\xe6~f@'
p1752
tp1753
Rp1754
ag10
(g14
S'*\xe9\xf0\x1e\x91\x82d@'
p1755
tp1756
Rp1757
ag10
(g14
S'\x80\xcb\xb9\x18\xe8\xf6c@'
p1758
tp1759
Rp1760
ag10
(g14
S'\x9e(P\xcd6\xa8c@'
p1761
tp1762
Rp1763
ag10
(g14
S'\x80h(\xc6\x13qe@'
p1764
tp1765
Rp1766
ag10
(g14
S'\xa9\x97\xf3G\xdb\xba`@'
p1767
tp1768
Rp1769
ag10
(g14
S'\xfa\x14\x03\xf3\x8e\x80c@'
p1770
tp1771
Rp1772
ag10
(g14
S'fF\x01\x83\xc0\x06d@'
p1773
tp1774
Rp1775
ag10
(g14
S'\x84\xea\x19E\x023a@'
p1776
tp1777
Rp1778
ag10
(g14
S'\x1fyE\xd9i`c@'
p1779
tp1780
Rp1781
ag10
(g14
S'\xf5\x03V\xa7\xa6?b@'
p1782
tp1783
Rp1784
ag10
(g14
S'|7<_|"a@'
p1785
tp1786
Rp1787
ag10
(g14
S'\xb4\n\xd9f\x80\x9d`@'
p1788
tp1789
Rp1790
ag10
(g14
S'\xc1F\xb0A\xfc3a@'
p1791
tp1792
Rp1793
asa(dp1794
g4
(lp1795
I150
aI160
aI170
aI180
aI190
aI200
aI210
aI220
aI230
aI240
aI250
aI260
aI270
aI280
aI290
aI300
aI310
aI320
aI330
aI340
aI350
aI360
aI370
aI380
aI390
aI400
aI410
aI420
aI430
asg6
(lp1796
I83
aI124
aI125
aI91
aI88
aI85
aI109
aI106
aI112
aI101
aI102
aI95
aI101
aI93
aI101
aI104
aI109
aI97
aI104
aI112
aI121
aI127
aI110
aI118
aI117
aI117
aI119
aI122
aI124
asg8
(lp1797
g10
(g14
S'\x8a\xbcMzk6c@'
p1798
tp1799
Rp1800
ag10
(g14
S'\xd32\xce\xd2H\x8fk@'
p1801
tp1802
Rp1803
ag10
(g14
S'\xb2\xc4\xf5\xc7\xc3\tn@'
p1804
tp1805
Rp1806
ag10
(g14
S'/\xe1\x1c\xf2\xc0\xa4g@'
p1807
tp1808
Rp1809
ag10
(g14
S'\x81\x00{\x11\x93\xf8d@'
p1810
tp1811
Rp1812
ag10
(g14
S'\xed\xfa\xe3 \xce\xb4d@'
p1813
tp1814
Rp1815
ag10
(g14
S'L\x19`\x1d[\x1dh@'
p1816
tp1817
Rp1818
ag10
(g14
S'\xb9\ns\xe7?:g@'
p1819
tp1820
Rp1821
ag10
(g14
S'`\xb8B\xa0&\xe6g@'
p1822
tp1823
Rp1824
ag10
(g14
S'\xd6\x19GW\xd3\xbac@'
p1825
tp1826
Rp1827
ag10
(g14
S'dg\xde~\xd9\x95c@'
p1828
tp1829
Rp1830
ag10
(g14
S'\xde\x8c[+&ua@'
p1831
tp1832
Rp1833
ag10
(g14
S'\x0c \x97\xe0\x11\x98b@'
p1834
tp1835
Rp1836
ag10
(g14
S'\xbbf\x9a\xaaV\xdb_@'
p1837
tp1838
Rp1839
ag10
(g14
S'D\\\xd1\xf1\xab\xea`@'
p1840
tp1841
Rp1842
ag10
(g14
S'\xaa\x02q\xdcO\xda`@'
p1843
tp1844
Rp1845
ag10
(g14
S'\x03E\xaf\x94\xe3\x18b@'
p1846
tp1847
Rp1848
ag10
(g14
S'\x05\r\xc4\xb0.\xdd]@'
p1849
tp1850
Rp1851
ag10
(g14
S'(\xaa\xc7~b5_@'
p1852
tp1853
Rp1854
ag10
(g14
S'm\xfc\x05\x98Z\xda`@'
p1855
tp1856
Rp1857
ag10
(g14
S'`\xbd_\xbcc\xa1b@'
p1858
tp1859
Rp1860
ag10
(g14
S'\xbdQ\x0f8\x94\x93c@'
p1861
tp1862
Rp1863
ag10
(g14
S'4\t)\x95\xbe\xa4_@'
p1864
tp1865
Rp1866
ag10
(g14
S'K\x1f\x8f\xa8\xa9Ha@'
p1867
tp1868
Rp1869
ag10
(g14
S'r\x9cTG\xe9\x83`@'
p1870
tp1871
Rp1872
ag10
(g14
S'z\xe8\xd1\xf5?\x95`@'
p1873
tp1874
Rp1875
ag10
(g14
S'/\xe4\xb5\x91\xe0\xa5`@'
p1876
tp1877
Rp1878
ag10
(g14
S'\x1bl\xd7\xd3\x93Ka@'
p1879
tp1880
Rp1881
ag10
(g14
S';\x87Yo\x92\x88a@'
p1882
tp1883
Rp1884
asa(dp1885
g4
(lp1886
I160
aI170
aI180
aI190
aI200
aI210
aI220
aI230
aI240
aI250
aI260
aI270
aI280
aI290
aI300
aI310
aI320
aI330
aI340
aI350
aI360
aI370
aI380
aI390
aI400
aI410
aI420
aI430
aI440
asg6
(lp1887
I80
aI95
aI91
aI115
aI105
aI81
aI85
aI75
aI106
aI99
aI93
aI93
aI84
aI88
aI94
aI96
aI87
aI99
aI94
aI96
aI100
aI106
aI107
aI107
aI103
aI109
aI118
aI125
aI123
asg8
(lp1888
g10
(g14
S'\xd0z\xfc\x14I\x16b@'
p1889
tp1890
Rp1891
ag10
(g14
S'\x0e\xefHCL\xcbd@'
p1892
tp1893
Rp1894
ag10
(g14
S'\x13\x1a\xd7\xde3\x06c@'
p1895
tp1896
Rp1897
ag10
(g14
S'+\xd7?\xdf\x8d\xc8g@'
p1898
tp1899
Rp1900
ag10
(g14
S'*\xe6\xa1\xe7\xa9nf@'
p1901
tp1902
Rp1903
ag10
(g14
S'\x98\xb5\xa2\x86\xd6\xcfc@'
p1904
tp1905
Rp1906
ag10
(g14
S'SM\xac\xff8\xddc@'
p1907
tp1908
Rp1909
ag10
(g14
S'\xd0F\x94j\xc6E`@'
p1910
tp1911
Rp1912
ag10
(g14
S']\x82c2\xc0\xf8e@'
p1913
tp1914
Rp1915
ag10
(g14
S"\xceP\x84-'\x9ed@"
p1916
tp1917
Rp1918
ag10
(g14
S'\x10V"\x0c\xd6\x05a@'
p1919
tp1920
Rp1921
ag10
(g14
S'`\xc9_\x94\xbb:a@'
p1922
tp1923
Rp1924
ag10
(g14
S'\x14N\xb4m.\x01^@'
p1925
tp1926
Rp1927
ag10
(g14
S'\x8a\xaf\x1f\xbb\xc0a^@'
p1928
tp1929
Rp1930
ag10
(g14
S'\xb2\xce\x80\xad\xb6%`@'
p1931
tp1932
Rp1933
ag10
(g14
S'\xd6\xe0t\x94\xd3\x19`@'
p1934
tp1935
Rp1936
ag10
(g14
S'~\x9e\xa3\xb5\xa6\xe0Z@'
p1937
tp1938
Rp1939
ag10
(g14
S'\xa0N\x91{\xf2\xd9_@'
p1940
tp1941
Rp1942
ag10
(g14
S'\xdd\xe0\x1a\x00\xd8\x84\\@'
p1943
tp1944
Rp1945
ag10
(g14
S'p\xe8\x94\xbf\x18\xaf\\@'
p1946
tp1947
Rp1948
ag10
(g14
S'\xaa)\x87\xa6T\xfc]@'
p1949
tp1950
Rp1951
ag10
(g14
S'\x9f:@pE\xe6^@'
p1952
tp1953
Rp1954
ag10
(g14
S'\x0f\x927\xceO\xc9^@'
p1955
tp1956
Rp1957
ag10
(g14
S'\x87\x02\xbc\xea\x8a\x85^@'
p1958
tp1959
Rp1960
ag10
(g14
S'&q\xe2\x8c`\xc7\\@'
p1961
tp1962
Rp1963
ag10
(g14
S'\xbb(a_\xa7~^@'
p1964
tp1965
Rp1966
ag10
(g14
S'v\xf7\xda\x0b\xd4\xd0`@'
p1967
tp1968
Rp1969
ag10
(g14
S' V=\xf3\x88\xd7a@'
p1970
tp1971
Rp1972
ag10
(g14
S'\x05XX\xad\xf4ma@'
p1973
tp1974
Rp1975
asa(dp1976
g4
(lp1977
I40
aI50
aI60
aI70
aI80
aI90
aI100
aI110
aI120
aI130
aI140
aI150
aI160
aI170
aI180
aI190
aI200
aI210
aI220
aI230
aI240
aI250
aI260
aI270
aI280
aI290
aI300
aI310
aI320
aI330
aI340
asg6
(lp1978
I127
aI120
aI205
aI161
aI174
aI117
aI126
aI107
aI121
aI120
aI113
aI107
aI105
aI105
aI110
aI108
aI98
aI109
aI109
aI99
aI118
aI103
aI109
aI123
aI115
aI118
aI120
aI115
aI117
aI130
aI124
asg8
(lp1979
g10
(g14
S'\xf0\x99a\xb9\x14\xf0{@'
p1980
tp1981
Rp1982
ag10
(g14
S'749\x97\x1a\xb2}@'
p1983
tp1984
Rp1985
ag10
(g14
S'\xa6{\xf2q\x92g\x85@'
p1986
tp1987
Rp1988
ag10
(g14
S'~\x98K\x16\x96\xca~@'
p1989
tp1990
Rp1991
ag10
(g14
S'Ak1-w\xba|@'
p1992
tp1993
Rp1994
ag10
(g14
S'\x9f"_\x13\xb7\xd7q@'
p1995
tp1996
Rp1997
ag10
(g14
S'\xde\xbf\xa3\x81\xdcmq@'
p1998
tp1999
Rp2000
ag10
(g14
S'\xe6\x8e\x9a\x9a\x8f\x18p@'
p2001
tp2002
Rp2003
ag10
(g14
S'\xc8\xa1wC\xa6\xd2q@'
p2004
tp2005
Rp2006
ag10
(g14
S'\xb8z^\t\xdb\x97q@'
p2007
tp2008
Rp2009
ag10
(g14
S'\x0b\xf3\xd0\x1bf1n@'
p2010
tp2011
Rp2012
ag10
(g14
S'X\x99\ru\xcb\x99i@'
p2013
tp2014
Rp2015
ag10
(g14
S"\xa7\x02\x13H\xa8'g@"
p2016
tp2017
Rp2018
ag10
(g14
S'&\x00\xaa\x05B_e@'
p2019
tp2020
Rp2021
ag10
(g14
S'K\xe4\xaa\x84)\xc8e@'
p2022
tp2023
Rp2024
ag10
(g14
S'p\x1a\x08q\x8frc@'
p2025
tp2026
Rp2027
ag10
(g14
S'\x82AxO\xd0\xa2`@'
p2028
tp2029
Rp2030
ag10
(g14
S'\x0f\x06\x88\xe9\xf9\xd6b@'
p2031
tp2032
Rp2033
ag10
(g14
S'v\xde\xaf\xf8,pb@'
p2034
tp2035
Rp2036
ag10
(g14
S'\xd4Qc\x03\xb9J^@'
p2037
tp2038
Rp2039
ag10
(g14
S'k\xa85\x84F\xe3c@'
p2040
tp2041
Rp2042
ag10
(g14
S'\xac\xa9EYN\xb2^@'
p2043
tp2044
Rp2045
ag10
(g14
S'\xea\x9d\x97\xa9`8`@'
p2046
tp2047
Rp2048
ag10
(g14
S'*\xba\x01!\xb7\xefb@'
p2049
tp2050
Rp2051
ag10
(g14
S'\xb2N\xb7\x15F\xc9`@'
p2052
tp2053
Rp2054
ag10
(g14
S'\xd6\xba\x0f\t\x83ma@'
p2055
tp2056
Rp2057
ag10
(g14
S'\xbd\xc5\x19V~\xcaa@'
p2058
tp2059
Rp2060
ag10
(g14
S'O\xc8\x9bQ\x15\xba`@'
p2061
tp2062
Rp2063
ag10
(g14
S"\x87\xcc']h\xd4`@"
p2064
tp2065
Rp2066
ag10
(g14
S'\x04\xb8\xd8RFDc@'
p2067
tp2068
Rp2069
ag10
(g14
S'\xa0\xb0\x1dQ\xad\x9ba@'
p2070
tp2071
Rp2072
asa(dp2073
g4
(lp2074
I40
aI50
aI60
aI70
aI80
aI90
aI100
aI110
aI120
aI130
aI140
aI150
aI160
aI170
aI180
aI190
aI200
aI210
aI220
aI230
aI240
aI250
aI260
aI270
aI280
aI290
aI300
aI310
asg6
(lp2075
I133
aI96
aI81
aI78
aI79
aI131
aI124
aI121
aI112
aI109
aI121
aI104
aI114
aI103
aI101
aI105
aI113
aI120
aI119
aI117
aI135
aI115
aI136
aI128
aI132
aI123
aI121
aI123
asg8
(lp2076
g10
(g14
S'Hu\xd7\xdd66|@'
p2077
tp2078
Rp2079
ag10
(g14
S'U\x96\xa6bt#z@'
p2080
tp2081
Rp2082
ag10
(g14
S'eg\x03\xb3 <u@'
p2083
tp2084
Rp2085
ag10
(g14
S'\xb5\xa4E\xf5D\x1bt@'
p2086
tp2087
Rp2088
ag10
(g14
S'l\xacN7\xb9rp@'
p2089
tp2090
Rp2091
ag10
(g14
S'\xbdGO\xf4\x9c.z@'
p2092
tp2093
Rp2094
ag10
(g14
S']6zn\xcf\xb0v@'
p2095
tp2096
Rp2097
ag10
(g14
S'\x80\xa0\xb5\xd8\xf3\xc5u@'
p2098
tp2099
Rp2100
ag10
(g14
S'\xc5\xa0s\xb5\xd0\x1ao@'
p2101
tp2102
Rp2103
ag10
(g14
S'!\x06\x91\xd7\xa1)m@'
p2104
tp2105
Rp2106
ag10
(g14
S'I\xdc\x10M\xbd\xe2o@'
p2107
tp2108
Rp2109
ag10
(g14
S'\xd9\x02bE\xdb=g@'
p2110
tp2111
Rp2112
ag10
(g14
S'\x1dX\xa5%j\xc1i@'
p2113
tp2114
Rp2115
ag10
(g14
S'\x16(\x96\xcb$Nd@'
p2116
tp2117
Rp2118
ag10
(g14
S'\x14#\x08m\xaf/a@'
p2119
tp2120
Rp2121
ag10
(g14
S'\xfc\xde\x14l?\x9aa@'
p2122
tp2123
Rp2124
ag10
(g14
S'\x9c\xae\xec\x971Pc@'
p2125
tp2126
Rp2127
ag10
(g14
S'\xe01\xaa\xd0\x01:d@'
p2128
tp2129
Rp2130
ag10
(g14
S'\xc0\xd8\xf1\xb9\x1d_c@'
p2131
tp2132
Rp2133
ag10
(g14
S'\x16)\xca\xbe\\\nc@'
p2134
tp2135
Rp2136
ag10
(g14
S'\xed\xc0c\xb7J\xd8f@'
p2137
tp2138
Rp2139
ag10
(g14
S'\xb6;\x03\x1a\xc9Aa@'
p2140
tp2141
Rp2142
ag10
(g14
S'I\xacYt\xb6\x98f@'
p2143
tp2144
Rp2145
ag10
(g14
S'\xed\xce\xed\x8e\x90\xcac@'
p2146
tp2147
Rp2148
ag10
(g14
S'\xee\xbc\x80\xc2\x16\x0ed@'
p2149
tp2150
Rp2151
ag10
(g14
S'\xfd\xcf(\x12\xfa\xaca@'
p2152
tp2153
Rp2154
ag10
(g14
S'E\x8fG\x17"Na@'
p2155
tp2156
Rp2157
ag10
(g14
S'z\x8b,\xba\x05\x98a@'
p2158
tp2159
Rp2160
asa(dp2161
g4
(lp2162
I200
aI210
aI220
aI230
aI240
aI250
aI260
aI270
aI280
aI290
aI300
aI310
aI320
aI330
aI340
aI350
aI360
aI370
aI380
aI390
aI400
aI410
aI420
aI430
aI440
aI450
aI460
aI470
aI480
aI490
asg6
(lp2163
I68
aI66
aI82
aI60
aI55
aI65
aI76
aI83
aI95
aI111
aI88
aI101
aI100
aI100
aI106
aI111
aI108
aI112
aI112
aI110
aI114
aI106
aI110
aI112
aI119
aI123
aI119
aI120
aI122
aI118
asg8
(lp2164
g10
(g14
S'J(\x9c\xb3\x8e\x13]@'
p2165
tp2166
Rp2167
ag10
(g14
S'\xdfN\x8b\x8a\x13\x91[@'
p2168
tp2169
Rp2170
ag10
(g14
S'\x03)\x89\xe4\xd8"a@'
p2171
tp2172
Rp2173
ag10
(g14
S'\x87<0K\xa3\x80]@'
p2174
tp2175
Rp2176
ag10
(g14
S'/\x18\r\x01\xd0^[@'
p2177
tp2178
Rp2179
ag10
(g14
S'\xfa}\xbaX\xe4\xff\\@'
p2180
tp2181
Rp2182
ag10
(g14
S'\xe3[\xba\xeaX~_@'
p2183
tp2184
Rp2185
ag10
(g14
S'`\xed{@;z`@'
p2186
tp2187
Rp2188
ag10
(g14
S'\xf4g\xd3+\xf3\xafb@'
p2189
tp2190
Rp2191
ag10
(g14
S'\xd89\xa2L^Se@'
p2192
tp2193
Rp2194
ag10
(g14
S'\xbc8\xb5\xd0\xdea`@'
p2195
tp2196
Rp2197
ag10
(g14
S'*\x01\x8e\xbf+:b@'
p2198
tp2199
Rp2200
ag10
(g14
S'\x99)\xae \x9d\xe0a@'
p2201
tp2202
Rp2203
ag10
(g14
S'\x86\x123\xe2\xb1\x86a@'
p2204
tp2205
Rp2206
ag10
(g14
S'\xd2\xb6\xa3\x8d\x81Bb@'
p2207
tp2208
Rp2209
ag10
(g14
S'\xd4\x17x\x10$\xabb@'
p2210
tp2211
Rp2212
ag10
(g14
S'Bw\xc1s\xd9:a@'
p2213
tp2214
Rp2215
ag10
(g14
S'<\x95\xf3\x11\x1e\x08b@'
p2216
tp2217
Rp2218
ag10
(g14
S',\xb3RNU6a@'
p2219
tp2220
Rp2221
ag10
(g14
S'\x02;%\x07\xf4\xb9`@'
p2222
tp2223
Rp2224
ag10
(g14
S'\xfa^\xec\xff#\x01a@'
p2225
tp2226
Rp2227
ag10
(g14
S'\x05\xf1\xd9\x84?\x8d^@'
p2228
tp2229
Rp2230
ag10
(g14
S'pn\xb4\xf8\xcd\t`@'
p2231
tp2232
Rp2233
ag10
(g14
S'\xb8z\x98\xf4\xf2\x19`@'
p2234
tp2235
Rp2236
ag10
(g14
S'\x08\xba\x86I\xc8\\a@'
p2237
tp2238
Rp2239
ag10
(g14
S'\xd8\x18K\xda\xdc\xdca@'
p2240
tp2241
Rp2242
ag10
(g14
S'\xe8=\xf7\xfd\x05\x1ba@'
p2243
tp2244
Rp2245
ag10
(g14
S't\xc1\x86\xfd`(a@'
p2246
tp2247
Rp2248
ag10
(g14
S'\x08n\xd8\x84r&a@'
p2249
tp2250
Rp2251
ag10
(g14
S'\xcc\xa3\xb4[\x95J`@'
p2252
tp2253
Rp2254
asa(dp2255
g4
(lp2256
I210
aI220
aI230
aI240
aI250
aI260
aI270
aI280
aI290
aI300
aI310
aI320
aI330
aI340
aI350
aI360
aI370
aI380
aI390
aI400
aI410
aI420
aI430
aI440
aI450
aI460
aI470
aI480
aI490
asg6
(lp2257
I68
aI60
aI94
aI107
aI97
aI88
aI81
aI96
aI110
aI111
aI106
aI103
aI107
aI113
aI115
aI118
aI114
aI113
aI120
aI123
aI120
aI129
aI128
aI114
aI120
aI118
aI115
aI116
aI112
asg8
(lp2258
g10
(g14
S'\xf3\x14\xbcs\x0cR\\@'
p2259
tp2260
Rp2261
ag10
(g14
S'=\xc8\x12\xaaiP]@'
p2262
tp2263
Rp2264
ag10
(g14
S'\xfaP\xaeD}\x98c@'
p2265
tp2266
Rp2267
ag10
(g14
S'V\xc0\x00\xf9\xb9Be@'
p2268
tp2269
Rp2270
ag10
(g14
S'Q\xb0x\x9d\xbe!c@'
p2271
tp2272
Rp2273
ag10
(g14
S'\x02\xcd\x99\x1b(\x88a@'
p2274
tp2275
Rp2276
ag10
(g14
S'\xb9\xd8\x941\x90b`@'
p2277
tp2278
Rp2279
ag10
(g14
S'n:\xf7\xf5\x1b\x08c@'
p2280
tp2281
Rp2282
ag10
(g14
S'*\x9e\xd9\xb7\xb3\xf0d@'
p2283
tp2284
Rp2285
ag10
(g14
S'T\xb2\xc0\xf7\xc4\xdcd@'
p2286
tp2287
Rp2288
ag10
(g14
S'\x80&}\xcb\xdc\xe9c@'
p2289
tp2290
Rp2291
ag10
(g14
S'8\xd6\xef\xd2\xf5rb@'
p2292
tp2293
Rp2294
ag10
(g14
S'\xf4\xa2\x98\xd6\x918b@'
p2295
tp2296
Rp2297
ag10
(g14
S'\xbd\x07\xe1H\x825c@'
p2298
tp2299
Rp2300
ag10
(g14
S'F\xac\x08\xc8\x9b c@'
p2301
tp2302
Rp2303
ag10
(g14
S'2K\xa6qS\x01c@'
p2304
tp2305
Rp2306
ag10
(g14
S'\xfcF\xddu}7b@'
p2307
tp2308
Rp2309
ag10
(g14
S'\x07\xd1\xea\xe5\xeb\xb5a@'
p2310
tp2311
Rp2312
ag10
(g14
S'\x8e:B\xdd\x91\xabb@'
p2313
tp2314
Rp2315
ag10
(g14
S'V\x08\xe9\xd5\x8f\x12c@'
p2316
tp2317
Rp2318
ag10
(g14
S'\x1e\x94\xd3z\x82\xbda@'
p2319
tp2320
Rp2321
ag10
(g14
S's^\x8a9\x1bjc@'
p2322
tp2323
Rp2324
ag10
(g14
S'k|lVY\xe4b@'
p2325
tp2326
Rp2327
ag10
(g14
S'\xad]n=\x1f-`@'
p2328
tp2329
Rp2330
ag10
(g14
S',\x03\xb8Xn`a@'
p2331
tp2332
Rp2333
ag10
(g14
S'\xc6=\xd26\xc8\xbd`@'
p2334
tp2335
Rp2336
ag10
(g14
S'\xa1(\xa4T5@`@'
p2337
tp2338
Rp2339
ag10
(g14
S'\xba\x85\xab\x17\x11!`@'
p2340
tp2341
Rp2342
ag10
(g14
S'\xc4\x88\x91\x02!W^@'
p2343
tp2344
Rp2345
asa(dp2346
g4
(lp2347
I90
aI100
aI110
aI120
aI130
aI140
aI150
aI160
aI170
aI180
aI190
aI200
aI210
aI220
aI230
aI240
aI250
aI260
aI270
aI280
aI290
aI300
aI310
aI320
aI330
aI340
aI350
aI360
asg6
(lp2348
I101
aI161
aI163
aI162
aI162
aI157
aI140
aI121
aI114
aI126
aI128
aI128
aI145
aI134
aI126
aI131
aI138
aI126
aI120
aI129
aI118
aI120
aI126
aI115
aI118
aI117
aI114
aI114
asg8
(lp2349
g10
(g14
S'\xad\xda\r\xb4\xd7\x1cm@'
p2350
tp2351
Rp2352
ag10
(g14
S'X\xaa\xf5`\x0b\xf5v@'
p2353
tp2354
Rp2355
ag10
(g14
S'\xcaZ\xf7\t%!u@'
p2356
tp2357
Rp2358
ag10
(g14
S'%\x85\xef>D\xb8u@'
p2359
tp2360
Rp2361
ag10
(g14
S'P\x1c\xcc\xd8\xbb\xe8u@'
p2362
tp2363
Rp2364
ag10
(g14
S'd`\xef\xf4:4u@'
p2365
tp2366
Rp2367
ag10
(g14
S'4v\x12\xce\xb5aq@'
p2368
tp2369
Rp2370
ag10
(g14
S'G m\xceFjl@'
p2371
tp2372
Rp2373
ag10
(g14
S'\x89\\\xc1\x03\x1bok@'
p2374
tp2375
Rp2376
ag10
(g14
S':\xc5vk\xbd\xa6m@'
p2377
tp2378
Rp2379
ag10
(g14
S'q\x02\x071\xd9 m@'
p2380
tp2381
Rp2382
ag10
(g14
S'F\xaa\x84\xf5\xa0\tl@'
p2383
tp2384
Rp2385
ag10
(g14
S'P\x9bp\xba\n\xeco@'
p2386
tp2387
Rp2388
ag10
(g14
S'\xb9\x0cp\x9e\x9a7k@'
p2389
tp2390
Rp2391
ag10
(g14
S'K8d\x85\x03\xe4g@'
p2392
tp2393
Rp2394
ag10
(g14
S'L\x8cH\xf5\xc7Rh@'
p2395
tp2396
Rp2397
ag10
(g14
S'4\x04r7B\x89i@'
p2398
tp2399
Rp2400
ag10
(g14
S'0\xba\x94$Y\x86e@'
p2401
tp2402
Rp2403
ag10
(g14
S'\xa6\x15\x9f\x12\xf2\xa4c@'
p2404
tp2405
Rp2406
ag10
(g14
S'\x93\x04\xcb\x7f"\xf4d@'
p2407
tp2408
Rp2409
ag10
(g14
S'-\xe7q\xf8PMb@'
p2410
tp2411
Rp2412
ag10
(g14
S'\xbc\xd3L\xa8\xce2b@'
p2413
tp2414
Rp2415
ag10
(g14
S'\xe4\x900\xa9\xccac@'
p2416
tp2417
Rp2418
ag10
(g14
S'FJ\x84\xac\x1e\xb3`@'
p2419
tp2420
Rp2421
ag10
(g14
S'\x1b=s\x93x+a@'
p2422
tp2423
Rp2424
ag10
(g14
S'\x9a\x14\x13$0\x8d`@'
p2425
tp2426
Rp2427
ag10
(g14
S'\xbaS\xc9y\x1c\xd8_@'
p2428
tp2429
Rp2430
ag10
(g14
S'`+\xf93\x9bt_@'
p2431
tp2432
Rp2433
asa(dp2434
g4
(lp2435
I140
aI150
aI160
aI170
aI180
aI190
aI200
aI210
aI220
aI230
aI240
aI250
aI260
aI270
aI280
aI290
aI300
aI310
aI320
aI330
aI340
aI350
aI360
aI370
aI380
aI390
aI400
aI410
asg6
(lp2436
I87
aI87
aI60
aI59
aI66
aI113
aI118
aI109
aI113
aI107
aI109
aI105
aI111
aI103
aI103
aI110
aI113
aI114
aI118
aI122
aI118
aI117
aI115
aI117
aI122
aI114
aI115
aI115
asg8
(lp2437
g10
(g14
S'\xac\x86J\x90\xb3<d@'
p2438
tp2439
Rp2440
ag10
(g14
S'\x04\xf10-\x90\x1cg@'
p2441
tp2442
Rp2443
ag10
(g14
S':E\\\xad\xc9\xf1a@'
p2444
tp2445
Rp2446
ag10
(g14
S'\x86+\x8c\x14\x9c\x87`@'
p2447
tp2448
Rp2449
ag10
(g14
S'\x80\xa2!x\xf7/a@'
p2450
tp2451
Rp2452
ag10
(g14
S'\x9b\xfa;\xbbjFk@'
p2453
tp2454
Rp2455
ag10
(g14
S'\xb8\xc9 \xf5\xd6)l@'
p2456
tp2457
Rp2458
ag10
(g14
S'\x9c\xde,\x82\xa3\xb8h@'
p2459
tp2460
Rp2461
ag10
(g14
S'\x1a\xc7\x05\xddU\x99h@'
p2462
tp2463
Rp2464
ag10
(g14
S'\x90\x17Kq\x93\xffe@'
p2465
tp2466
Rp2467
ag10
(g14
S'=\x96\x1do<Ze@'
p2468
tp2469
Rp2470
ag10
(g14
S'\x16jg&<\xeec@'
p2471
tp2472
Rp2473
ag10
(g14
S'\xf2\xec\xff2\xbe\x1cd@'
p2474
tp2475
Rp2476
ag10
(g14
S'\xe10\xa7\t-Jb@'
p2477
tp2478
Rp2479
ag10
(g14
S'\xb6`B^\xa4`a@'
p2480
tp2481
Rp2482
ag10
(g14
S'\x1a\x9b\xdd\x81v\x9bb@'
p2483
tp2484
Rp2485
ag10
(g14
S"\xf6\xef\xacR'>b@"
p2486
tp2487
Rp2488
ag10
(g14
S'\x1eW\x95\xc7\xd47b@'
p2489
tp2490
Rp2491
ag10
(g14
S'NP\x11\x96\x00\xc9b@'
p2492
tp2493
Rp2494
ag10
(g14
S'\xcd\x8dm2\xf8\xd8b@'
p2495
tp2496
Rp2497
ag10
(g14
S'\xf85C1\xa8\x8ca@'
p2498
tp2499
Rp2500
ag10
(g14
S'\xe1.W\xd8-Aa@'
p2501
tp2502
Rp2503
ag10
(g14
S'\xcaS\x8d\xf5A\xd0`@'
p2504
tp2505
Rp2506
ag10
(g14
S'\x1c\xb9\xcc5\x11-a@'
p2507
tp2508
Rp2509
ag10
(g14
S'\xba<\xb7\xa7\x88\xa4a@'
p2510
tp2511
Rp2512
ag10
(g14
S'h\x9f\xcf\xfb\xfe\x1a`@'
p2513
tp2514
Rp2515
ag10
(g14
S'\xc5Yn?\x16\xcf_@'
p2516
tp2517
Rp2518
ag10
(g14
S'@\x1e\rz\xbcg_@'
p2519
tp2520
Rp2521
asa(dp2522
g4
(lp2523
I120
aI130
aI140
aI150
aI160
aI170
aI180
aI190
aI200
aI210
aI220
aI230
aI240
aI250
aI260
aI270
aI280
aI290
aI300
aI310
aI320
aI330
aI340
aI350
aI360
aI370
aI380
aI390
asg6
(lp2524
I94
aI71
aI61
aI66
aI69
aI63
aI110
aI110
aI109
aI114
aI107
aI111
aI113
aI100
aI105
aI108
aI109
aI105
aI108
aI112
aI116
aI115
aI120
aI118
aI126
aI128
aI123
aI125
asg8
(lp2525
g10
(g14
S'\xd7\xb6\x9d\\M\x1fg@'
p2526
tp2527
Rp2528
ag10
(g14
S'\xa9+!\xef\xf0Pe@'
p2529
tp2530
Rp2531
ag10
(g14
S'N\xf8P\x96\xdd\x15c@'
p2532
tp2533
Rp2534
ag10
(g14
S'p"\x91=\x19]b@'
p2535
tp2536
Rp2537
ag10
(g14
S'\xb3\x11e\x0b\xe8\xe0a@'
p2538
tp2539
Rp2540
ag10
(g14
S'\xcc\xc2\x99\xb0\x8a/`@'
p2541
tp2542
Rp2543
ag10
(g14
S'K\xe7\x8b\xa5\x1d\x1bj@'
p2544
tp2545
Rp2546
ag10
(g14
S'3\x04\x91\xa8x\xdai@'
p2547
tp2548
Rp2549
ag10
(g14
S'1\xf0\x81eF\x13h@'
p2550
tp2551
Rp2552
ag10
(g14
S'`\x81\xae\x8b\x90\x83h@'
p2553
tp2554
Rp2555
ag10
(g14
S'\x15\x8a]t\xd7\xdee@'
p2556
tp2557
Rp2558
ag10
(g14
S'\xae\xbf\xd4*;we@'
p2559
tp2560
Rp2561
ag10
(g14
S'J\xd6@jf\xe6e@'
p2562
tp2563
Rp2564
ag10
(g14
S'\xfb\x0e\xb0\x1c\xab\xbca@'
p2565
tp2566
Rp2567
ag10
(g14
S'\xe25`\xe11zb@'
p2568
tp2569
Rp2570
ag10
(g14
S'\xfc$D\xb7\xcf\xf4a@'
p2571
tp2572
Rp2573
ag10
(g14
S'\xbe=\xf8\xb3\xfc\x82a@'
p2574
tp2575
Rp2576
ag10
(g14
S'k\xf9\xb9\x18\xbd\x0fa@'
p2577
tp2578
Rp2579
ag10
(g14
S'K\xf0J|\xe8\xc1`@'
p2580
tp2581
Rp2582
ag10
(g14
S'\xb8\x1fX\t\xfa\xd4`@'
p2583
tp2584
Rp2585
ag10
(g14
S"S\x7f\x7f\x1b'\xb7a@"
p2586
tp2587
Rp2588
ag10
(g14
S'\x92\xfe4\xff`\xf2`@'
p2589
tp2590
Rp2591
ag10
(g14
S'@H3\xdc\xc6,b@'
p2592
tp2593
Rp2594
ag10
(g14
S'\x17w\xec\xbe\xca\ra@'
p2595
tp2596
Rp2597
ag10
(g14
S'\xbe\xe1\x12\xa5s\xa7b@'
p2598
tp2599
Rp2600
ag10
(g14
S'\x91K\xbc\xad\x87\xb9b@'
p2601
tp2602
Rp2603
ag10
(g14
S'Tr\xd8kf\xaba@'
p2604
tp2605
Rp2606
ag10
(g14
S'4\xcdu@\xc9\xeca@'
p2607
tp2608
Rp2609
asa(dp2610
g4
(lp2611
I80
aI90
aI100
aI110
aI120
aI130
aI140
aI150
aI160
aI170
aI180
aI190
aI200
aI210
aI220
aI230
aI240
aI250
aI260
aI270
aI280
aI290
aI300
aI310
aI320
aI330
aI340
aI350
asg6
(lp2612
I106
aI84
aI120
aI138
aI164
aI162
aI127
aI137
aI107
aI107
aI115
aI116
aI123
aI118
aI132
aI111
aI115
aI104
aI111
aI115
aI108
aI119
aI124
aI126
aI116
aI112
aI122
aI118
asg8
(lp2613
g10
(g14
S'\xfdJ\xd7$\x17\x96o@'
p2614
tp2615
Rp2616
ag10
(g14
S'\xb5\x17\xf9\xd6%\xa9n@'
p2617
tp2618
Rp2619
ag10
(g14
S'm\xfd\xa2\x0c1_s@'
p2620
tp2621
Rp2622
ag10
(g14
S'\x02:5W\x17\x9fs@'
p2623
tp2624
Rp2625
ag10
(g14
S'\xc6\x10\x88\xe6\xfa\x98v@'
p2626
tp2627
Rp2628
ag10
(g14
S'\x92\\\xf2[\x8f\x17u@'
p2629
tp2630
Rp2631
ag10
(g14
S'\xbf/\xba\xcb\x02\xcbl@'
p2632
tp2633
Rp2634
ag10
(g14
S'6\xa5\xe8\x1b\x1cbp@'
p2635
tp2636
Rp2637
ag10
(g14
S'\xc5\x81\xb9^\x0b\xe6i@'
p2638
tp2639
Rp2640
ag10
(g14
S'\xcb\x9e\x18\xcdc;i@'
p2641
tp2642
Rp2643
ag10
(g14
S'\x97\xedY\\\xa5\x1bj@'
p2644
tp2645
Rp2646
ag10
(g14
S'.6\xd29\x95_j@'
p2647
tp2648
Rp2649
ag10
(g14
S"\xcb>d\xf1-'k@"
p2650
tp2651
Rp2652
ag10
(g14
S',E\xd0\xc3\xb8\x94g@'
p2653
tp2654
Rp2655
ag10
(g14
S's\xa5Ze\x0c\x93j@'
p2656
tp2657
Rp2658
ag10
(g14
S'h\xd5\xd7\xc2\xab\x17d@'
p2659
tp2660
Rp2661
ag10
(g14
S'V\xa7\x1e\xd2\x80^d@'
p2662
tp2663
Rp2664
ag10
(g14
S'\xf6\xa3fpO\x96a@'
p2665
tp2666
Rp2667
ag10
(g14
S'+\xcd&#"\x83b@'
p2668
tp2669
Rp2670
ag10
(g14
S'\xca\x96\xc6Jh\xd8a@'
p2671
tp2672
Rp2673
ag10
(g14
S'YM\xa2\xf6\x8c]`@'
p2674
tp2675
Rp2676
ag10
(g14
S'1\xa6|\xee\xe7\x1eb@'
p2677
tp2678
Rp2679
ag10
(g14
S'\xb6d[\xdb:\x1ac@'
p2680
tp2681
Rp2682
ag10
(g14
S'\x9a^*\x99\xcd\xbab@'
p2683
tp2684
Rp2685
ag10
(g14
S'DZce{\xe6`@'
p2686
tp2687
Rp2688
ag10
(g14
S'\x1d\\w\x85\xf3&_@'
p2689
tp2690
Rp2691
ag10
(g14
S'5\xdf\xac\xf5\xedia@'
p2692
tp2693
Rp2694
ag10
(g14
S'\xf0\x9f\xe49\xd2\xb3`@'
p2695
tp2696
Rp2697
asasS'pos'
p2698
(lp2699
(dp2700
g4
(lp2701
I0
aI10
aI20
aI30
aI40
aI50
aI60
aI70
aI80
aI90
aI100
aI110
aI120
aI130
aI140
aI150
aI160
aI170
aI180
aI190
aI200
aI210
aI220
aI230
aI240
aI250
aI260
aI270
aI280
aI290
asg2698
(lp2702
I0
aI0
aI0
aI1
aI1
aI3
aI8
aI10
aI15
aI22
aI27
aI34
aI41
aI48
aI54
aI60
aI65
aI70
aI74
aI74
aI77
aI80
aI82
aI84
aI87
aI90
aI90
aI93
aI93
aI95
asa(dp2703
g4
(lp2704
I0
aI10
aI20
aI30
aI40
aI50
aI60
aI70
aI80
aI90
aI100
aI110
aI120
aI130
aI140
aI150
aI160
aI170
aI180
aI190
aI200
aI210
aI220
aI230
aI240
aI250
aI260
aI270
aI280
aI290
aI300
aI310
aI320
aI330
asg2698
(lp2705
I0
aI0
aI0
aI1
aI1
aI8
aI12
aI15
aI20
aI24
aI29
aI37
aI43
aI50
aI54
aI59
aI65
aI68
aI73
aI77
aI77
aI77
aI81
aI84
aI86
aI86
aI89
aI90
aI90
aI91
aI92
aI93
aI93
aI95
asa(dp2706
g4
(lp2707
I0
aI10
aI20
aI30
aI40
aI50
aI60
aI70
aI80
aI90
aI100
aI110
aI120
aI130
aI140
aI150
aI160
aI170
aI180
aI190
aI200
aI210
aI220
aI230
aI240
aI250
aI260
aI270
aI280
aI290
aI300
aI310
aI320
aI330
aI340
aI350
aI360
aI370
asg2698
(lp2708
I0
aI0
aI0
aI0
aI0
aI0
aI0
aI0
aI0
aI1
aI5
aI8
aI16
aI24
aI27
aI32
aI38
aI43
aI48
aI50
aI52
aI55
aI57
aI57
aI59
aI62
aI66
aI71
aI76
aI82
aI84
aI87
aI90
aI90
aI91
aI92
aI94
aI95
asa(dp2709
g4
(lp2710
I0
aI10
aI20
aI30
aI40
aI50
aI60
aI70
aI80
aI90
aI100
aI110
aI120
aI130
aI140
aI150
aI160
aI170
aI180
aI190
aI200
aI210
aI220
aI230
aI240
aI250
aI260
aI270
aI280
aI290
aI300
aI310
aI320
aI330
asg2698
(lp2711
I0
aI0
aI0
aI0
aI0
aI0
aI1
aI1
aI5
aI10
aI16
aI19
aI21
aI30
aI36
aI44
aI48
aI54
aI58
aI61
aI65
aI70
aI73
aI76
aI79
aI82
aI85
aI86
aI86
aI87
aI89
aI91
aI93
aI95
asa(dp2712
g4
(lp2713
I0
aI10
aI20
aI30
aI40
aI50
aI60
aI70
aI80
aI90
aI100
aI110
aI120
aI130
aI140
aI150
aI160
aI170
aI180
aI190
aI200
aI210
aI220
aI230
aI240
aI250
aI260
aI270
aI280
aI290
aI300
aI310
aI320
aI330
asg2698
(lp2714
I0
aI0
aI1
aI1
aI1
aI8
aI15
aI20
aI25
aI28
aI34
aI41
aI45
aI48
aI49
aI53
aI57
aI62
aI65
aI70
aI71
aI73
aI76
aI79
aI81
aI85
aI88
aI91
aI91
aI92
aI92
aI94
aI94
aI97
asa(dp2715
g4
(lp2716
I0
aI10
aI20
aI30
aI40
aI50
aI60
aI70
aI80
aI90
aI100
aI110
aI120
aI130
aI140
aI150
aI160
aI170
aI180
aI190
aI200
aI210
aI220
aI230
aI240
aI250
aI260
aI270
aI280
aI290
aI300
aI310
aI320
aI330
aI340
aI350
aI360
asg2698
(lp2717
I0
aI0
aI0
aI0
aI0
aI0
aI0
aI0
aI1
aI5
aI10
aI16
aI21
aI26
aI34
aI38
aI41
aI45
aI47
aI50
aI52
aI58
aI63
aI68
aI71
aI74
aI77
aI79
aI81
aI83
aI87
aI89
aI89
aI89
aI92
aI92
aI95
asa(dp2718
g4
(lp2719
I0
aI10
aI20
aI30
aI40
aI50
aI60
aI70
aI80
aI90
aI100
aI110
aI120
aI130
aI140
aI150
aI160
aI170
aI180
aI190
aI200
aI210
aI220
aI230
aI240
aI250
aI260
aI270
aI280
aI290
aI300
aI310
asg2698
(lp2720
I0
aI0
aI0
aI0
aI0
aI1
aI6
aI9
aI13
aI14
aI19
aI26
aI29
aI37
aI46
aI54
aI58
aI64
aI66
aI70
aI73
aI75
aI77
aI79
aI83
aI83
aI86
aI89
aI90
aI91
aI93
aI95
asa(dp2721
g4
(lp2722
I0
aI10
aI20
aI30
aI40
aI50
aI60
aI70
aI80
aI90
aI100
aI110
aI120
aI130
aI140
aI150
aI160
aI170
aI180
aI190
aI200
aI210
aI220
aI230
aI240
aI250
aI260
aI270
aI280
aI290
aI300
aI310
aI320
aI330
aI340
aI350
aI360
aI370
aI380
aI390
aI400
aI410
aI420
aI430
aI440
aI450
aI460
aI470
aI480
aI490
aI500
asg2698
(lp2723
I0
aI0
aI0
aI0
aI0
aI0
aI0
aI0
aI0
aI0
aI0
aI0
aI0
aI0
aI0
aI0
aI0
aI0
aI0
aI0
aI0
aI0
aI0
aI1
aI7
aI11
aI17
aI20
aI24
aI29
aI35
aI42
aI48
aI53
aI61
aI65
aI68
aI71
aI73
aI76
aI77
aI80
aI84
aI85
aI86
aI86
aI89
aI90
aI91
aI94
aI96
asa(dp2724
g4
(lp2725
I0
aI10
aI20
aI30
aI40
aI50
aI60
aI70
aI80
aI90
aI100
aI110
aI120
aI130
aI140
aI150
aI160
aI170
aI180
aI190
aI200
aI210
aI220
aI230
aI240
aI250
aI260
aI270
aI280
aI290
aI300
aI310
aI320
aI330
aI340
aI350
aI360
asg2698
(lp2726
I0
aI0
aI0
aI2
aI3
aI9
aI11
aI16
aI21
aI23
aI30
aI37
aI44
aI49
aI52
aI55
aI57
aI62
aI63
aI68
aI71
aI72
aI75
aI76
aI81
aI81
aI82
aI85
aI87
aI87
aI89
aI92
aI92
aI93
aI93
aI94
aI97
asa(dp2727
g4
(lp2728
I0
aI10
aI20
aI30
aI40
aI50
aI60
aI70
aI80
aI90
aI100
aI110
aI120
aI130
aI140
aI150
aI160
aI170
aI180
aI190
aI200
aI210
aI220
aI230
aI240
aI250
aI260
aI270
aI280
aI290
aI300
aI310
aI320
aI330
aI340
aI350
aI360
asg2698
(lp2729
I0
aI0
aI0
aI0
aI0
aI0
aI0
aI0
aI1
aI6
aI11
aI18
aI24
aI30
aI34
aI37
aI40
aI45
aI49
aI52
aI56
aI60
aI62
aI65
aI70
aI72
aI79
aI81
aI83
aI87
aI88
aI90
aI91
aI92
aI92
aI94
aI96
asa(dp2730
g4
(lp2731
I0
aI10
aI20
aI30
aI40
aI50
aI60
aI70
aI80
aI90
aI100
aI110
aI120
aI130
aI140
aI150
aI160
aI170
aI180
aI190
aI200
aI210
aI220
aI230
aI240
aI250
aI260
aI270
aI280
aI290
aI300
aI310
asg2698
(lp2732
I0
aI0
aI1
aI1
aI1
aI3
aI9
aI17
aI26
aI30
aI36
aI43
aI46
aI49
aI55
aI58
aI62
aI67
aI69
aI71
aI76
aI79
aI82
aI83
aI85
aI87
aI90
aI91
aI92
aI92
aI94
aI96
asa(dp2733
g4
(lp2734
I0
aI10
aI20
aI30
aI40
aI50
aI60
aI70
aI80
aI90
aI100
aI110
aI120
aI130
aI140
aI150
aI160
aI170
aI180
aI190
aI200
aI210
aI220
aI230
aI240
aI250
aI260
aI270
aI280
aI290
aI300
aI310
aI320
aI330
aI340
aI350
aI360
aI370
aI380
aI390
aI400
aI410
aI420
aI430
aI440
asg2698
(lp2735
I0
aI0
aI0
aI0
aI0
aI0
aI0
aI0
aI0
aI0
aI0
aI0
aI0
aI0
aI0
aI1
aI6
aI14
aI16
aI20
aI24
aI30
aI34
aI42
aI46
aI50
aI52
aI55
aI56
aI58
aI66
aI71
aI73
aI74
aI78
aI82
aI85
aI87
aI87
aI88
aI88
aI89
aI92
aI93
aI95
asa(dp2736
g4
(lp2737
I0
aI10
aI20
aI30
aI40
aI50
aI60
aI70
aI80
aI90
aI100
aI110
aI120
aI130
aI140
aI150
aI160
aI170
aI180
aI190
aI200
aI210
aI220
aI230
aI240
aI250
aI260
aI270
aI280
aI290
aI300
aI310
aI320
aI330
aI340
aI350
asg2698
(lp2738
I0
aI1
aI1
aI1
aI1
aI1
aI6
aI9
aI15
aI19
aI24
aI31
aI38
aI44
aI52
aI55
aI60
aI63
aI65
aI65
aI69
aI70
aI73
aI77
aI78
aI79
aI84
aI84
aI88
aI88
aI88
aI90
aI91
aI92
aI93
aI96
asa(dp2739
g4
(lp2740
I0
aI10
aI20
aI30
aI40
aI50
aI60
aI70
aI80
aI90
aI100
aI110
aI120
aI130
aI140
aI150
aI160
aI170
aI180
aI190
aI200
aI210
aI220
aI230
aI240
aI250
aI260
aI270
aI280
aI290
aI300
aI310
aI320
aI330
asg2698
(lp2741
I0
aI0
aI0
aI0
aI0
aI1
aI5
aI14
aI18
aI24
aI30
aI33
aI37
aI43
aI45
aI46
aI50
aI53
aI58
aI59
aI66
aI69
aI70
aI73
aI77
aI81
aI84
aI89
aI89
aI91
aI93
aI94
aI94
aI95
asa(dp2742
g4
(lp2743
I0
aI10
aI20
aI30
aI40
aI50
aI60
aI70
aI80
aI90
aI100
aI110
aI120
aI130
aI140
aI150
aI160
aI170
aI180
aI190
aI200
aI210
aI220
aI230
aI240
aI250
aI260
aI270
aI280
aI290
aI300
aI310
aI320
aI330
aI340
aI350
aI360
aI370
aI380
aI390
aI400
asg2698
(lp2744
I0
aI0
aI0
aI0
aI0
aI0
aI0
aI0
aI0
aI0
aI0
aI0
aI0
aI0
aI1
aI9
aI15
aI21
aI22
aI28
aI33
aI39
aI44
aI49
aI51
aI55
aI57
aI59
aI62
aI66
aI72
aI75
aI76
aI79
aI81
aI86
aI89
aI90
aI92
aI94
aI95
asa(dp2745
g4
(lp2746
I0
aI10
aI20
aI30
aI40
aI50
aI60
aI70
aI80
aI90
aI100
aI110
aI120
aI130
aI140
aI150
aI160
aI170
aI180
aI190
aI200
aI210
aI220
aI230
aI240
aI250
aI260
aI270
aI280
aI290
aI300
aI310
aI320
aI330
aI340
aI350
aI360
aI370
aI380
aI390
aI400
aI410
aI420
aI430
aI440
aI450
aI460
aI470
aI480
aI490
aI500
aI510
aI520
aI530
aI540
aI550
aI560
aI570
aI580
aI590
aI600
aI610
aI620
aI630
aI640
aI650
aI660
aI670
aI680
aI690
aI700
aI710
aI720
aI730
aI740
aI750
aI760
aI770
aI780
aI790
aI800
aI810
aI820
aI830
aI840
aI850
asg2698
(lp2747
I0
aI0
aI0
aI0
aI0
aI0
aI0
aI0
aI0
aI0
aI0
aI0
aI0
aI0
aI0
aI0
aI0
aI0
aI0
aI0
aI0
aI0
aI0
aI0
aI0
aI0
aI0
aI0
aI0
aI0
aI0
aI0
aI0
aI0
aI0
aI0
aI0
aI0
aI0
aI0
aI0
aI0
aI0
aI0
aI0
aI0
aI0
aI0
aI0
aI0
aI0
aI0
aI0
aI0
aI0
aI1
aI3
aI5
aI11
aI17
aI23
aI29
aI34
aI40
aI42
aI44
aI47
aI49
aI53
aI56
aI61
aI65
aI66
aI69
aI69
aI71
aI72
aI75
aI82
aI87
aI90
aI90
aI92
aI94
aI94
aI95
asa(dp2748
g4
(lp2749
I0
aI10
aI20
aI30
aI40
aI50
aI60
aI70
aI80
aI90
aI100
aI110
aI120
aI130
aI140
aI150
aI160
aI170
aI180
aI190
aI200
aI210
aI220
aI230
aI240
aI250
aI260
aI270
aI280
aI290
aI300
aI310
aI320
aI330
aI340
aI350
aI360
asg2698
(lp2750
I0
aI0
aI1
aI1
aI1
aI7
aI14
aI16
aI20
aI26
aI29
aI33
aI39
aI46
aI50
aI53
aI55
aI58
aI62
aI67
aI69
aI71
aI73
aI76
aI79
aI81
aI84
aI86
aI86
aI88
aI90
aI90
aI91
aI91
aI93
aI94
aI97
asa(dp2751
g4
(lp2752
I0
aI10
aI20
aI30
aI40
aI50
aI60
aI70
aI80
aI90
aI100
aI110
aI120
aI130
aI140
aI150
aI160
aI170
aI180
aI190
aI200
aI210
aI220
aI230
aI240
aI250
aI260
aI270
aI280
aI290
aI300
aI310
aI320
aI330
aI340
aI350
aI360
aI370
aI380
asg2698
(lp2753
I0
aI0
aI0
aI0
aI0
aI0
aI0
aI0
aI0
aI1
aI8
aI14
aI19
aI25
aI31
aI36
aI40
aI42
aI49
aI52
aI56
aI61
aI62
aI65
aI66
aI68
aI72
aI77
aI77
aI80
aI82
aI85
aI87
aI87
aI88
aI89
aI92
aI94
aI95
asa(dp2754
g4
(lp2755
I0
aI10
aI20
aI30
aI40
aI50
aI60
aI70
aI80
aI90
aI100
aI110
aI120
aI130
aI140
aI150
aI160
aI170
aI180
aI190
aI200
aI210
aI220
aI230
aI240
aI250
aI260
aI270
aI280
aI290
aI300
aI310
aI320
aI330
aI340
aI350
aI360
aI370
aI380
asg2698
(lp2756
I0
aI0
aI0
aI0
aI0
aI0
aI0
aI0
aI0
aI1
aI4
aI11
aI16
aI21
aI24
aI28
aI30
aI36
aI44
aI48
aI50
aI53
aI56
aI62
aI64
aI66
aI68
aI72
aI74
aI76
aI81
aI84
aI86
aI87
aI89
aI91
aI92
aI93
aI95
asa(dp2757
g4
(lp2758
I0
aI10
aI20
aI30
aI40
aI50
aI60
aI70
aI80
aI90
aI100
aI110
aI120
aI130
aI140
aI150
aI160
aI170
aI180
aI190
aI200
aI210
aI220
aI230
aI240
aI250
aI260
aI270
aI280
aI290
aI300
aI310
aI320
aI330
asg2698
(lp2759
I0
aI0
aI0
aI0
aI0
aI0
aI1
aI4
aI10
aI19
aI23
aI28
aI31
aI40
aI45
aI48
aI53
aI60
aI62
aI65
aI67
aI70
aI73
aI78
aI79
aI83
aI84
aI86
aI89
aI90
aI90
aI91
aI93
aI95
asa(dp2760
g4
(lp2761
I0
aI10
aI20
aI30
aI40
aI50
aI60
aI70
aI80
aI90
aI100
aI110
aI120
aI130
aI140
aI150
aI160
aI170
aI180
aI190
aI200
aI210
aI220
aI230
aI240
aI250
aI260
aI270
aI280
aI290
aI300
aI310
aI320
aI330
aI340
aI350
aI360
aI370
aI380
aI390
aI400
aI410
aI420
aI430
aI440
asg2698
(lp2762
I0
aI0
aI0
aI0
aI0
aI0
aI0
aI0
aI0
aI0
aI0
aI0
aI0
aI0
aI0
aI1
aI4
aI10
aI17
aI22
aI29
aI32
aI38
aI43
aI44
aI49
aI51
aI56
aI57
aI62
aI66
aI67
aI69
aI75
aI79
aI83
aI85
aI85
aI89
aI91
aI92
aI92
aI94
aI94
aI95
asa(dp2763
g4
(lp2764
I0
aI10
aI20
aI30
aI40
aI50
aI60
aI70
aI80
aI90
aI100
aI110
aI120
aI130
aI140
aI150
aI160
aI170
aI180
aI190
aI200
aI210
aI220
aI230
aI240
aI250
aI260
aI270
aI280
aI290
aI300
aI310
aI320
aI330
aI340
aI350
aI360
aI370
aI380
aI390
aI400
aI410
aI420
aI430
aI440
aI450
asg2698
(lp2765
I0
aI0
aI0
aI0
aI0
aI0
aI0
aI0
aI0
aI0
aI0
aI0
aI0
aI0
aI0
aI0
aI1
aI2
aI2
aI5
aI9
aI15
aI22
aI27
aI31
aI37
aI38
aI43
aI45
aI51
aI55
aI57
aI58
aI62
aI64
aI69
aI72
aI77
aI83
aI84
aI84
aI87
aI91
aI93
aI94
aI95
asa(dp2766
g4
(lp2767
I0
aI10
aI20
aI30
aI40
aI50
aI60
aI70
aI80
aI90
aI100
aI110
aI120
aI130
aI140
aI150
aI160
aI170
aI180
aI190
aI200
aI210
aI220
aI230
aI240
aI250
aI260
aI270
aI280
aI290
aI300
aI310
aI320
aI330
aI340
aI350
asg2698
(lp2768
I0
aI0
aI0
aI1
aI1
aI8
aI11
aI16
aI18
aI23
aI27
aI31
aI40
aI44
aI48
aI50
aI56
aI60
aI65
aI66
aI67
aI69
aI71
aI74
aI78
aI79
aI83
aI87
aI88
aI88
aI88
aI88
aI90
aI94
aI94
aI96
asa(dp2769
g4
(lp2770
I0
aI10
aI20
aI30
aI40
aI50
aI60
aI70
aI80
aI90
aI100
aI110
aI120
aI130
aI140
aI150
aI160
aI170
aI180
aI190
aI200
aI210
aI220
aI230
aI240
aI250
aI260
aI270
aI280
aI290
aI300
aI310
aI320
asg2698
(lp2771
I0
aI1
aI1
aI1
aI1
aI7
aI15
aI23
aI27
aI32
aI37
aI42
aI44
aI50
aI54
aI57
aI60
aI61
aI65
aI71
aI76
aI81
aI82
aI83
aI88
aI88
aI91
aI91
aI93
aI93
aI94
aI94
aI96
asa(dp2772
g4
(lp2773
I0
aI10
aI20
aI30
aI40
aI50
aI60
aI70
aI80
aI90
aI100
aI110
aI120
aI130
aI140
aI150
aI160
aI170
aI180
aI190
aI200
aI210
aI220
aI230
aI240
aI250
aI260
aI270
aI280
aI290
aI300
aI310
aI320
aI330
aI340
aI350
aI360
aI370
aI380
aI390
aI400
aI410
aI420
aI430
aI440
aI450
aI460
aI470
aI480
aI490
aI500
asg2698
(lp2774
I0
aI0
aI0
aI0
aI0
aI0
aI0
aI0
aI0
aI0
aI0
aI0
aI0
aI0
aI0
aI0
aI0
aI0
aI0
aI0
aI1
aI1
aI4
aI11
aI16
aI20
aI24
aI28
aI32
aI35
aI36
aI43
aI48
aI51
aI55
aI60
aI63
aI69
aI72
aI74
aI78
aI80
aI82
aI84
aI86
aI88
aI89
aI90
aI92
aI94
aI96
asa(dp2775
g4
(lp2776
I0
aI10
aI20
aI30
aI40
aI50
aI60
aI70
aI80
aI90
aI100
aI110
aI120
aI130
aI140
aI150
aI160
aI170
aI180
aI190
aI200
aI210
aI220
aI230
aI240
aI250
aI260
aI270
aI280
aI290
aI300
aI310
aI320
aI330
aI340
aI350
aI360
aI370
aI380
aI390
aI400
aI410
aI420
aI430
aI440
aI450
aI460
aI470
aI480
aI490
aI500
asg2698
(lp2777
I0
aI0
aI0
aI0
aI0
aI0
aI0
aI0
aI0
aI0
aI0
aI0
aI0
aI0
aI0
aI0
aI0
aI0
aI0
aI0
aI0
aI1
aI9
aI10
aI13
aI19
aI25
aI28
aI34
aI40
aI46
aI50
aI52
aI58
aI64
aI67
aI71
aI72
aI75
aI79
aI82
aI85
aI86
aI87
aI87
aI88
aI88
aI88
aI91
aI93
aI95
asa(dp2778
g4
(lp2779
I0
aI10
aI20
aI30
aI40
aI50
aI60
aI70
aI80
aI90
aI100
aI110
aI120
aI130
aI140
aI150
aI160
aI170
aI180
aI190
aI200
aI210
aI220
aI230
aI240
aI250
aI260
aI270
aI280
aI290
aI300
aI310
aI320
aI330
aI340
aI350
aI360
aI370
asg2698
(lp2780
I0
aI0
aI0
aI0
aI0
aI0
aI0
aI0
aI0
aI1
aI6
aI8
aI12
aI17
aI22
aI25
aI32
aI39
aI48
aI53
aI58
aI65
aI66
aI69
aI73
aI79
aI79
aI81
aI84
aI84
aI87
aI88
aI88
aI90
aI91
aI93
aI94
aI96
asa(dp2781
g4
(lp2782
I0
aI10
aI20
aI30
aI40
aI50
aI60
aI70
aI80
aI90
aI100
aI110
aI120
aI130
aI140
aI150
aI160
aI170
aI180
aI190
aI200
aI210
aI220
aI230
aI240
aI250
aI260
aI270
aI280
aI290
aI300
aI310
aI320
aI330
aI340
aI350
aI360
aI370
aI380
aI390
aI400
aI410
aI420
asg2698
(lp2783
I0
aI0
aI0
aI0
aI0
aI0
aI0
aI0
aI0
aI0
aI0
aI0
aI0
aI0
aI1
aI6
aI14
aI21
aI26
aI30
aI37
aI41
aI46
aI48
aI54
aI57
aI61
aI63
aI66
aI72
aI76
aI77
aI81
aI84
aI85
aI85
aI87
aI89
aI91
aI91
aI93
aI94
aI96
asa(dp2784
g4
(lp2785
I0
aI10
aI20
aI30
aI40
aI50
aI60
aI70
aI80
aI90
aI100
aI110
aI120
aI130
aI140
aI150
aI160
aI170
aI180
aI190
aI200
aI210
aI220
aI230
aI240
aI250
aI260
aI270
aI280
aI290
aI300
aI310
aI320
aI330
aI340
aI350
aI360
aI370
aI380
aI390
aI400
asg2698
(lp2786
I0
aI0
aI0
aI0
aI0
aI0
aI0
aI0
aI0
aI0
aI0
aI0
aI1
aI8
aI16
aI20
aI23
aI28
aI33
aI41
aI44
aI49
aI52
aI55
aI58
aI59
aI62
aI67
aI69
aI71
aI76
aI81
aI83
aI84
aI87
aI88
aI91
aI92
aI93
aI94
aI96
asa(dp2787
g4
(lp2788
I0
aI10
aI20
aI30
aI40
aI50
aI60
aI70
aI80
aI90
aI100
aI110
aI120
aI130
aI140
aI150
aI160
aI170
aI180
aI190
aI200
aI210
aI220
aI230
aI240
aI250
aI260
aI270
aI280
aI290
aI300
aI310
aI320
aI330
aI340
aI350
aI360
asg2698
(lp2789
I0
aI0
aI0
aI0
aI0
aI0
aI0
aI0
aI1
aI7
aI11
aI13
aI16
aI20
aI21
aI28
aI35
aI42
aI48
aI53
aI58
aI62
aI66
aI67
aI69
aI69
aI73
aI77
aI79
aI86
aI88
aI89
aI89
aI91
aI94
aI94
aI95
asas.