(dp0
S'est'
p1
(lp2
(dp3
S'x'
p4
(lp5
I10
aI20
aI30
aI40
aI50
aI60
aI70
aI80
aI90
aI100
aI110
aI120
aI130
aI140
aI150
aI160
aI170
aI180
aI190
aI200
aI210
aI220
aI230
aI240
aI250
aI260
aI270
aI280
aI290
aI300
aI310
aI320
aI330
aI340
aI350
aI360
aI370
aI380
aI390
aI400
aI410
aI420
aI430
aI440
aI450
aI460
aI470
aI480
aI490
aI500
aI510
aI520
aI530
aI540
aI550
aI560
aI570
aI580
aI590
aI600
aI610
aI620
aI630
aI640
aI650
aI660
aI670
aI680
aI690
aI700
aI710
aI720
aI730
aI740
aI750
aI760
aI770
aI780
aI790
aI800
aI810
aI820
aI830
aI840
aI850
aI860
aI870
aI880
aI890
aI900
aI910
aI920
aI930
aI940
aI950
aI960
aI970
aI980
aI990
aI1000
aI1010
aI1020
aI1030
aI1040
aI1050
aI1060
aI1070
aI1080
aI1090
aI1100
aI1110
aI1120
aI1130
aI1140
aI1150
aI1160
aI1170
aI1180
aI1190
aI1200
aI1210
aI1220
aI1230
aI1240
aI1250
aI1260
aI1270
aI1280
aI1290
aI1300
aI1310
aI1320
aI1330
aI1340
aI1350
aI1360
aI1370
aI1380
aI1390
aI1400
aI1410
aI1420
aI1430
aI1440
aI1450
aI1460
aI1470
aI1480
aI1490
asS'semi'
p6
(lp7
I123
aI124
aI102
aI98
aI95
aI95
aI92
aI87
aI86
aI88
aI85
aI82
aI86
aI87
aI92
aI102
aI90
aI99
aI105
aI94
aI93
aI100
aI112
aI112
aI112
aI115
aI105
aI115
aI109
aI115
aI113
aI113
aI112
aI111
aI114
aI111
aI110
aI117
aI114
aI112
aI111
aI111
aI113
aI111
aI111
aI111
aI110
aI111
aI112
aI112
aI111
aI112
aI111
aI110
aI111
aI109
aI110
aI110
aI109
aI110
aI110
aI110
aI109
aI109
aI108
aI109
aI109
aI109
aI109
aI108
aI109
aI109
aI107
aI108
aI108
aI107
aI108
aI108
aI108
aI109
aI107
aI108
aI107
aI107
aI109
aI108
aI109
aI108
aI109
aI108
aI109
aI108
aI109
aI108
aI108
aI108
aI108
aI108
aI109
aI108
aI108
aI108
aI108
aI107
aI108
aI107
aI108
aI108
aI107
aI107
aI107
aI107
aI107
aI107
aI107
aI107
aI107
aI108
aI107
aI107
aI107
aI107
aI107
aI107
aI107
aI107
aI107
aI108
aI107
aI107
aI107
aI107
aI107
aI107
aI107
aI107
aI107
aI106
aI106
aI107
aI107
aI106
aI107
aI107
aI106
aI106
aI107
aI107
aI107
asS'sigmoid'
p8
(lp9
cnumpy.core.multiarray
scalar
p10
(cnumpy
dtype
p11
(S'f8'
p12
I0
I1
tp13
Rp14
(I3
S'<'
p15
NNNI-1
I-1
I0
tp16
bS'[\xf5o\xef\x12[\xad@'
p17
tp18
Rp19
ag10
(g14
S'\xc08\x17\x1c\xa3(\x91@'
p20
tp21
Rp22
ag10
(g14
S'\xeb\xa7j|\x87\xcc\x84@'
p23
tp24
Rp25
ag10
(g14
S'E\xe8\xc2\xeb\xa4\xa4{@'
p26
tp27
Rp28
ag10
(g14
S'\xd2 A\xa5\x9a\x17q@'
p29
tp30
Rp31
ag10
(g14
S'\x04\x15\xda\x91\xf1\xe8j@'
p32
tp33
Rp34
ag10
(g14
S'\xda\xc4\xf28V\xb5\x85@'
p35
tp36
Rp37
ag10
(g14
S'\xe1\x06\xf47Ck\x82@'
p38
tp39
Rp40
ag10
(g14
S'xk$<P\xe9\x7f@'
p41
tp42
Rp43
ag10
(g14
S'7\xc9\x80\x90\xce\xc8y@'
p44
tp45
Rp46
ag10
(g14
S'\xa1y\xc4\xe0\xba\x84t@'
p47
tp48
Rp49
ag10
(g14
S'\x89{\x9b~\x0f\x15m@'
p50
tp51
Rp52
ag10
(g14
S'\x86I2\xe4\xe2\x0fi@'
p53
tp54
Rp55
ag10
(g14
S'\xbfk\xc1\x0c\xc4\x19g@'
p56
tp57
Rp58
ag10
(g14
S'\xd0\xe3\x06_\xb5\x1ah@'
p59
tp60
Rp61
ag10
(g14
S'\x14\xbf\xaf\xda\xcbsj@'
p62
tp63
Rp64
ag10
(g14
S'\xd8\x8e\n\xec\xe8\xc7a@'
p65
tp66
Rp67
ag10
(g14
S'\x92\x13\xf0\xb2\x95 e@'
p68
tp69
Rp70
ag10
(g14
S'\x19kK\xdc\xfa/g@'
p71
tp72
Rp73
ag10
(g14
S'K\xd4\xdb\xd5\x0e\xa6a@'
p74
tp75
Rp76
ag10
(g14
S'^e\x92<\xafs_@'
p77
tp78
Rp79
ag10
(g14
S'pc:\xfa1$a@'
p80
tp81
Rp82
ag10
(g14
S'\x05\xbeM\xddkdd@'
p83
tp84
Rp85
ag10
(g14
S'\xd8\xbd\xeaK\xc6\\c@'
p86
tp87
Rp88
ag10
(g14
S'\x9fH\x96\xe1Qeb@'
p89
tp90
Rp91
ag10
(g14
S'\x90\xb07\xf0\x85\xc4b@'
p92
tp93
Rp94
ag10
(g14
S'\xac\x12\xfc\xed\x13\x9d^@'
p95
tp96
Rp97
ag10
(g14
S'\xe8\xdc\xba\xc4J\x8aa@'
p98
tp99
Rp100
ag10
(g14
S'\xb81FWI\xe2^@'
p101
tp102
Rp103
ag10
(g14
S'l\xdau\x1d\x9c\xcf`@'
p104
tp105
Rp106
ag10
(g14
S'\x9b\x82\xe1x\xe4\x1e`@'
p107
tp108
Rp109
ag10
(g14
S'\xdb\x1d\xa8<\xcf\x13`@'
p110
tp111
Rp112
ag10
(g14
S'\xad4\xb0\xab%e_@'
p113
tp114
Rp115
ag10
(g14
S'\xb4l\xf1\xf4\xea\xc8^@'
p116
tp117
Rp118
ag10
(g14
S'\xeaz\xdb\x8b\xe2\x10`@'
p119
tp120
Rp121
ag10
(g14
S'\xb9\x08\xb9\x92ln^@'
p122
tp123
Rp124
ag10
(g14
S'\xb0\x83\x81\x0b\xc6\xd1]@'
p125
tp126
Rp127
ag10
(g14
S'\xba\r\xb7\xb3:a`@'
p128
tp129
Rp130
ag10
(g14
S'%}\x94F\x123_@'
p131
tp132
Rp133
ag10
(g14
S'\xe4\xa5AFoK^@'
p134
tp135
Rp136
ag10
(g14
S'{\x1b\xad\xd4K\xcf]@'
p137
tp138
Rp139
ag10
(g14
S'\x0c</\xa9\xa7\x99]@'
p140
tp141
Rp142
ag10
(g14
S'\xe3\x88\x9c\xcb\xdc\xb0^@'
p143
tp144
Rp145
ag10
(g14
S'\xf0^\x97[\xb6\x84]@'
p146
tp147
Rp148
ag10
(g14
S'S\x12\xf0\xdcWp]@'
p149
tp150
Rp151
ag10
(g14
S'AJ\xb3\xff|{]@'
p152
tp153
Rp154
ag10
(g14
S'\xb5/<\x0b\x1d\x12]@'
p155
tp156
Rp157
ag10
(g14
S'\x179\x98CYf]@'
p158
tp159
Rp160
ag10
(g14
S'\xe9\xa3\x98\x01 r]@'
p161
tp162
Rp163
ag10
(g14
S'9\xf2\x84\xba1\xbc]@'
p164
tp165
Rp166
ag10
(g14
S'\xbe:\x02\xd3\xedH]@'
p167
tp168
Rp169
ag10
(g14
S'\xfe-\xf2\x19\xfc\x86]@'
p170
tp171
Rp172
ag10
(g14
S'N\x98(9\x96\r]@'
p173
tp174
Rp175
ag10
(g14
S'\x02\xa1\x1790\xa0\\@'
p176
tp177
Rp178
ag10
(g14
S'K\x97\x12u\x8f\xe4\\@'
p179
tp180
Rp181
ag10
(g14
S'\xfc\xb5\xd1\xcbhi\\@'
p182
tp183
Rp184
ag10
(g14
S'\xa2d\xdb\t\x82\xaa\\@'
p185
tp186
Rp187
ag10
(g14
S's<\xf6\x98|\x82\\@'
p188
tp189
Rp190
ag10
(g14
S'\x93\xb6uq\x92|\\@'
p191
tp192
Rp193
ag10
(g14
S'\x92nrG\x84\xa1\\@'
p194
tp195
Rp196
ag10
(g14
S'O\xf1\x12\xb5\xfb\xaf\\@'
p197
tp198
Rp199
ag10
(g14
S'\xd7\x12\xcfU1\xc3\\@'
p200
tp201
Rp202
ag10
(g14
S'\x8c\xb36\x182B\\@'
p203
tp204
Rp205
ag10
(g14
S'\x9f\xd8pF4\x1f\\@'
p206
tp207
Rp208
ag10
(g14
S'\x93\x07,\xa92\xff[@'
p209
tp210
Rp211
ag10
(g14
S'$v\xc3s\x97J\\@'
p212
tp213
Rp214
ag10
(g14
S'\x04\x18J{>\n\\@'
p215
tp216
Rp217
ag10
(g14
S']\xe4w\x05\xb7\x1f\\@'
p218
tp219
Rp220
ag10
(g14
S'\x1bU\xf8\xf7\x13:\\@'
p221
tp222
Rp223
ag10
(g14
S'\x14\xf8C\xf8\xdf\xde[@'
p224
tp225
Rp226
ag10
(g14
S'|\x90\xa2D,\x0b\\@'
p227
tp228
Rp229
ag10
(g14
S'\xdf\xbf\x88\xa25\xff[@'
p230
tp231
Rp232
ag10
(g14
S'\x05-\x18\xb8\x13\x97[@'
p233
tp234
Rp235
ag10
(g14
S'~\xf3X\x05*\xe2[@'
p236
tp237
Rp238
ag10
(g14
S'5%\xf2\xea\x1d\xb8[@'
p239
tp240
Rp241
ag10
(g14
S'\xe5\x1d[\x93\xb0\x87[@'
p242
tp243
Rp244
ag10
(g14
S'\x01\xb2$\x98"\x9e[@'
p245
tp246
Rp247
ag10
(g14
S'5\x12\xfe\xefp\xa4[@'
p248
tp249
Rp250
ag10
(g14
S'\xfd\x94\xc7\xc0\xfc\xae[@'
p251
tp252
Rp253
ag10
(g14
S'\x8c\xba\xecA\\\xf9[@'
p254
tp255
Rp256
ag10
(g14
S'\xc1\xdb\r;\xc5~[@'
p257
tp258
Rp259
ag10
(g14
S'c\x16B\xdbo\xa6[@'
p260
tp261
Rp262
ag10
(g14
S'G{\x0e\xd7\xa9][@'
p263
tp264
Rp265
ag10
(g14
S'PY\xc5\x1ck\x7f[@'
p266
tp267
Rp268
ag10
(g14
S'Y\xcc\xdak6\xda[@'
p269
tp270
Rp271
ag10
(g14
S'(\xf0\xc6\xc3\xc4\xbe[@'
p272
tp273
Rp274
ag10
(g14
S'}\x14g\xd9\xc9\xd4[@'
p275
tp276
Rp277
ag10
(g14
S'\x17\xf8\x118\x96\xb2[@'
p278
tp279
Rp280
ag10
(g14
S'\xe0h\xcc\x1a\x05\xea[@'
p281
tp282
Rp283
ag10
(g14
S'\xe7\xe7\x9c\x05;\x96[@'
p284
tp285
Rp286
ag10
(g14
S'\xf5y\xd5\xd3\xa9\xd7[@'
p287
tp288
Rp289
ag10
(g14
S'J:\x1b\xc2w\xc5[@'
p290
tp291
Rp292
ag10
(g14
S'\xf8k\xb9\x0b,\x06\\@'
p293
tp294
Rp295
ag10
(g14
S'\x92~e\xaf\x8a\x8d[@'
p296
tp297
Rp298
ag10
(g14
S'_\xac\x15\xcaN\x81[@'
p299
tp300
Rp301
ag10
(g14
S'.\xb3\xc8\xe5\xfc\xac[@'
p302
tp303
Rp304
ag10
(g14
S'ZZ\t\xbfA\x84[@'
p305
tp306
Rp307
ag10
(g14
S'\xd9\x84\xf4\xca\xa3\xa1[@'
p308
tp309
Rp310
ag10
(g14
S'\xb1~\xcbD`\xd9[@'
p311
tp312
Rp313
ag10
(g14
S'^"%\x9b\xd5\xbb[@'
p314
tp315
Rp316
ag10
(g14
S'\xfa^O\x8cr\xa5[@'
p317
tp318
Rp319
ag10
(g14
S'\xceim\x8fv\xb9[@'
p320
tp321
Rp322
ag10
(g14
S'S\x1f!y\x1d\x7f[@'
p323
tp324
Rp325
ag10
(g14
S'd\xcb\xe8\xfc\x9ak[@'
p326
tp327
Rp328
ag10
(g14
S'\xa82\xa0\xb1U\x8a[@'
p329
tp330
Rp331
ag10
(g14
S'\xa7g\x1d]\x97W[@'
p332
tp333
Rp334
ag10
(g14
S'^N\x04\xddFr[@'
p335
tp336
Rp337
ag10
(g14
S'\xa6T/\x0f\x8d\x8e[@'
p338
tp339
Rp340
ag10
(g14
S'\x12\xac}HDd[@'
p341
tp342
Rp343
ag10
(g14
S'\x18z$\x8b\xc39[@'
p344
tp345
Rp346
ag10
(g14
S'\x90\xf0\xcc\xa9\x06O[@'
p347
tp348
Rp349
ag10
(g14
S'\xdf\xb6\xde\xa3]1[@'
p350
tp351
Rp352
ag10
(g14
S'\x02\x16\xf4w\xc9=[@'
p353
tp354
Rp355
ag10
(g14
S'\xf5\xd3\xb1\x92|V[@'
p356
tp357
Rp358
ag10
(g14
S'\x815\xc6\x05(a[@'
p359
tp360
Rp361
ag10
(g14
S'\xa1\x04X\x92\x9a<[@'
p362
tp363
Rp364
ag10
(g14
S'\t\xdcB#Te[@'
p365
tp366
Rp367
ag10
(g14
S'\xbf\x82\xdd\x93\xa5w[@'
p368
tp369
Rp370
ag10
(g14
S'Ya\xc7\xa1\xb0J[@'
p371
tp372
Rp373
ag10
(g14
S't\x82\x0f\x9c\xe2O[@'
p374
tp375
Rp376
ag10
(g14
S'\x88\xdc\x1d0\xa2;[@'
p377
tp378
Rp379
ag10
(g14
S'\xb3Y\xc4\x90wG[@'
p380
tp381
Rp382
ag10
(g14
S'\x986\xd6\xa4\x8a7[@'
p383
tp384
Rp385
ag10
(g14
S'\x16\x03"\xdeC [@'
p386
tp387
Rp388
ag10
(g14
S'r\x1e\x19\x19\\\x18[@'
p389
tp390
Rp391
ag10
(g14
S'\xff\xb6\x82\xc9\x1e.[@'
p392
tp393
Rp394
ag10
(g14
S'2\xd7\x8c\xfa\xff [@'
p395
tp396
Rp397
ag10
(g14
S'\x1a\xd3\x83\xd3zi[@'
p398
tp399
Rp400
ag10
(g14
S'f$\x14\x8d\xe4\x0f[@'
p401
tp402
Rp403
ag10
(g14
S'\xf4\x92\xf3V\x077[@'
p404
tp405
Rp406
ag10
(g14
S'D\x0c\xf3\x1d\xe3][@'
p407
tp408
Rp409
ag10
(g14
S'\xb2y!\xd9\xec5[@'
p410
tp411
Rp412
ag10
(g14
S'\\w(2\xfe\x1a[@'
p413
tp414
Rp415
ag10
(g14
S'\x12\xc8\xd9\xb6\xec\x1c[@'
p416
tp417
Rp418
ag10
(g14
S'\xb0?\xd0\xc1)7[@'
p419
tp420
Rp421
ag10
(g14
S'*\xe7=\x126\x15[@'
p422
tp423
Rp424
ag10
(g14
S'>\x08iVn\x13[@'
p425
tp426
Rp427
ag10
(g14
S'=\xc6c\x94\x8a\x06[@'
p428
tp429
Rp430
ag10
(g14
S'=D\\\x0e\xdb\x07[@'
p431
tp432
Rp433
ag10
(g14
S'\\\x88\xf2\xba\x80C[@'
p434
tp435
Rp436
ag10
(g14
S'\xc4j7\xa7\xa5![@'
p437
tp438
Rp439
ag10
(g14
S'\xf2\xea\xf3&"\x04[@'
p440
tp441
Rp442
ag10
(g14
S'\xc3\x15`\x91E*[@'
p443
tp444
Rp445
ag10
(g14
S'\xba\xcf\xb0\xc1o\x18[@'
p446
tp447
Rp448
ag10
(g14
S'\xaaYC\x8aV\xfcZ@'
p449
tp450
Rp451
ag10
(g14
S'gvs\xdf\xe4\x04[@'
p452
tp453
Rp454
ag10
(g14
S'\x1c\x1b:\xa4\x0e\x0c[@'
p455
tp456
Rp457
ag10
(g14
S'X\xb5+\x1b\xa3\x1a[@'
p458
tp459
Rp460
ag10
(g14
S'#\x1fl\xe0`\x15[@'
p461
tp462
Rp463
asasS'pos'
p464
(lp465
(dp466
g4
(lp467
I0
aI10
aI20
aI30
aI40
aI50
aI60
aI70
aI80
aI90
aI100
aI110
aI120
aI130
aI140
aI150
aI160
aI170
aI180
aI190
aI200
aI210
aI220
aI230
aI240
aI250
aI260
aI270
aI280
aI290
aI300
aI310
aI320
aI330
aI340
aI350
aI360
aI370
aI380
aI390
aI400
aI410
aI420
aI430
aI440
aI450
aI460
aI470
aI480
aI490
aI500
aI510
aI520
aI530
aI540
aI550
aI560
aI570
aI580
aI590
aI600
aI610
aI620
aI630
aI640
aI650
aI660
aI670
aI680
aI690
aI700
aI710
aI720
aI730
aI740
aI750
aI760
aI770
aI780
aI790
aI800
aI810
aI820
aI830
aI840
aI850
aI860
aI870
aI880
aI890
aI900
aI910
aI920
aI930
aI940
aI950
aI960
aI970
aI980
aI990
aI1000
aI1010
aI1020
aI1030
aI1040
aI1050
aI1060
aI1070
aI1080
aI1090
aI1100
aI1110
aI1120
aI1130
aI1140
aI1150
aI1160
aI1170
aI1180
aI1190
aI1200
aI1210
aI1220
aI1230
aI1240
aI1250
aI1260
aI1270
aI1280
aI1290
aI1300
aI1310
aI1320
aI1330
aI1340
aI1350
aI1360
aI1370
aI1380
aI1390
aI1400
aI1410
aI1420
aI1430
aI1440
aI1450
aI1460
aI1470
aI1480
aI1490
aI1500
asg464
(lp468
I0
aI8
aI10
aI15
aI20
aI23
aI27
aI33
aI36
aI38
aI42
aI45
aI48
aI53
aI57
aI61
aI66
aI67
aI69
aI70
aI70
aI73
aI78
aI82
aI85
aI87
aI89
aI89
aI93
aI94
aI96
aI96
aI96
aI96
aI97
aI97
aI97
aI97
aI99
aI99
aI100
aI100
aI100
aI100
aI100
aI101
aI101
aI101
aI101
aI102
aI102
aI102
aI102
aI102
aI102
aI102
aI102
aI102
aI102
aI102
aI102
aI102
aI102
aI102
aI102
aI102
aI102
aI102
aI102
aI102
aI102
aI102
aI102
aI102
aI102
aI102
aI102
aI102
aI102
aI102
aI102
aI102
aI102
aI102
aI102
aI103
aI103
aI103
aI103
aI103
aI103
aI103
aI103
aI103
aI103
aI103
aI103
aI103
aI103
aI103
aI103
aI103
aI103
aI103
aI103
aI103
aI103
aI103
aI103
aI103
aI103
aI103
aI103
aI103
aI103
aI103
aI103
aI103
aI103
aI103
aI103
aI103
aI103
aI103
aI103
aI103
aI103
aI103
aI103
aI103
aI103
aI103
aI103
aI103
aI103
aI103
aI103
aI103
aI103
aI103
aI103
aI103
aI103
aI103
aI103
aI103
aI103
aI103
aI103
aI103
aI103
asas.