(dp0
S'est'
p1
(lp2
(dp3
S'x'
p4
(lp5
I10
aI20
aI30
aI40
aI50
aI60
aI70
aI80
aI90
aI100
aI110
aI120
aI130
aI140
aI150
aI160
aI170
aI180
aI190
aI200
aI210
aI220
aI230
aI240
aI250
aI260
aI270
aI280
aI290
aI300
aI310
aI320
aI330
aI340
aI350
aI360
aI370
aI380
aI390
aI400
aI410
aI420
aI430
aI440
aI450
aI460
aI470
aI480
aI490
aI500
aI510
aI520
aI530
aI540
aI550
aI560
aI570
aI580
aI590
aI600
aI610
aI620
aI630
aI640
aI650
aI660
aI670
aI680
aI690
aI700
aI710
aI720
aI730
aI740
aI750
aI760
aI770
aI780
aI790
aI800
aI810
aI820
aI830
aI840
aI850
aI860
aI870
aI880
aI890
aI900
aI910
aI920
aI930
aI940
aI950
aI960
aI970
aI980
aI990
aI1000
aI1010
aI1020
aI1030
aI1040
aI1050
aI1060
aI1070
aI1080
aI1090
aI1100
aI1110
aI1120
aI1130
aI1140
aI1150
aI1160
aI1170
aI1180
aI1190
aI1200
aI1210
aI1220
aI1230
aI1240
aI1250
aI1260
aI1270
aI1280
aI1290
aI1300
aI1310
aI1320
aI1330
aI1340
aI1350
aI1360
aI1370
aI1380
aI1390
aI1400
aI1410
aI1420
aI1430
aI1440
aI1450
aI1460
aI1470
aI1480
aI1490
aI1500
aI1510
aI1520
aI1530
aI1540
aI1550
aI1560
aI1570
aI1580
aI1590
aI1600
aI1610
aI1620
aI1630
aI1640
aI1650
aI1660
aI1670
aI1680
aI1690
aI1700
aI1710
aI1720
aI1730
aI1740
aI1750
aI1760
aI1770
aI1780
aI1790
aI1800
aI1810
aI1820
aI1830
aI1840
aI1850
aI1860
aI1870
aI1880
aI1890
aI1900
aI1910
aI1920
aI1930
aI1940
aI1950
aI1960
aI1970
aI1980
asS'semi'
p6
(lp7
I122
aI93
aI87
aI63
aI66
aI56
aI50
aI51
aI53
aI48
aI44
aI47
aI52
aI49
aI46
aI49
aI46
aI47
aI48
aI45
aI44
aI46
aI46
aI49
aI50
aI50
aI48
aI51
aI50
aI53
aI50
aI52
aI51
aI52
aI50
aI51
aI51
aI52
aI50
aI51
aI49
aI52
aI51
aI50
aI50
aI50
aI49
aI50
aI51
aI49
aI50
aI49
aI51
aI49
aI48
aI50
aI48
aI51
aI49
aI51
aI49
aI49
aI48
aI50
aI50
aI48
aI49
aI48
aI48
aI48
aI49
aI49
aI49
aI49
aI49
aI49
aI49
aI49
aI48
aI48
aI49
aI50
aI49
aI49
aI50
aI48
aI49
aI49
aI49
aI49
aI50
aI49
aI49
aI48
aI49
aI49
aI49
aI49
aI48
aI49
aI49
aI48
aI48
aI49
aI48
aI48
aI48
aI48
aI48
aI48
aI49
aI48
aI48
aI48
aI48
aI48
aI48
aI48
aI48
aI48
aI48
aI48
aI48
aI47
aI48
aI48
aI48
aI48
aI47
aI47
aI48
aI48
aI47
aI48
aI48
aI48
aI47
aI48
aI47
aI47
aI48
aI47
aI47
aI47
aI47
aI47
aI47
aI47
aI47
aI48
aI47
aI47
aI47
aI47
aI47
aI47
aI47
aI47
aI47
aI47
aI47
aI47
aI47
aI47
aI47
aI47
aI47
aI47
aI47
aI47
aI47
aI47
aI47
aI47
aI47
aI47
aI47
aI47
aI47
aI47
aI47
aI47
aI47
aI47
aI48
aI48
aI48
aI48
aI48
aI48
aI48
aI48
aI48
aI48
aI48
aI48
aI48
aI47
asS'sigmoid'
p8
(lp9
cnumpy.core.multiarray
scalar
p10
(cnumpy
dtype
p11
(S'f8'
p12
I0
I1
tp13
Rp14
(I3
S'<'
p15
NNNI-1
I-1
I0
tp16
bS"'\x91\xc5\xd3\x00\x17\x8e@"
p17
tp18
Rp19
ag10
(g14
S'Oe\xcae\x9f>z@'
p20
tp21
Rp22
ag10
(g14
S'\xf2\x15\xa4c\t\xb8p@'
p23
tp24
Rp25
ag10
(g14
S'\x84\xe3Ua\x9a}[@'
p26
tp27
Rp28
ag10
(g14
S'4\x86\x87(@\xc0W@'
p29
tp30
Rp31
ag10
(g14
S'\xe5\xfbrH\r\x1fL@'
p32
tp33
Rp34
ag10
(g14
S'V\xa0eR\xcc\xbdB@'
p35
tp36
Rp37
ag10
(g14
S'\x18\x9c\x8b\xfd\xc4\xc0A@'
p38
tp39
Rp40
ag10
(g14
S'\xf2mWi\xe1mB@'
p41
tp42
Rp43
ag10
(g14
S'\xee\xe6\x9b\xc9\xec\xe7c@'
p44
tp45
Rp46
ag10
(g14
S'e\xf1\xed\xe7Jf]@'
p47
tp48
Rp49
ag10
(g14
S'\x94\xa3\xc8$\xb42]@'
p50
tp51
Rp52
ag10
(g14
S'\x8a\r}\x9b\n\xd5`@'
p53
tp54
Rp55
ag10
(g14
S'L\x11I\xcf>\x81]@'
p56
tp57
Rp58
ag10
(g14
S'G\xa0\x19g\xa1!Y@'
p59
tp60
Rp61
ag10
(g14
S')\x123\xe9\xa9\x87Y@'
p62
tp63
Rp64
ag10
(g14
S'\x88\xb5\xe5\xc4C\xedU@'
p65
tp66
Rp67
ag10
(g14
S'B\xb0c7C\x95U@'
p68
tp69
Rp70
ag10
(g14
S'*\xb2\xf5t\xee\xb1V@'
p71
tp72
Rp73
ag10
(g14
S'\xde\xd7\x03]\x02\x1aR@'
p74
tp75
Rp76
ag10
(g14
S'\xc3\\\x1ec,\x1fQ@'
p77
tp78
Rp79
ag10
(g14
S'\x98\xa8^\xd4\x1a!Q@'
p80
tp81
Rp82
ag10
(g14
S'\xe9\xd6\xefg\xf1,P@'
p83
tp84
Rp85
ag10
(g14
S',rw\xfbjZQ@'
p86
tp87
Rp88
ag10
(g14
S'\x90\x8a\xb7j\xe9\xecP@'
p89
tp90
Rp91
ag10
(g14
S'a\xf8Kv95Q@'
p92
tp93
Rp94
ag10
(g14
S'$\x80\x83\xd5\x91\x06P@'
p95
tp96
Rp97
ag10
(g14
S'\xb4\xc5~\x08\x1a\xddP@'
p98
tp99
Rp100
ag10
(g14
S'\x04\x9e\xf1\xdd!\x0bO@'
p101
tp102
Rp103
ag10
(g14
S'\xa7\xc5S\xa0\xcf\x98Q@'
p104
tp105
Rp106
ag10
(g14
S'\xa6{\xde]\xf79O@'
p107
tp108
Rp109
ag10
(g14
S'y\xa8?\xbdZ\xa4O@'
p110
tp111
Rp112
ag10
(g14
S'\x1axw/i;N@'
p113
tp114
Rp115
ag10
(g14
S'L\xf9y\xd6\xe0gO@'
p116
tp117
Rp118
ag10
(g14
S'^m\x83\x91r\xd5M@'
p119
tp120
Rp121
ag10
(g14
S'\xe40\x0e6\xae\x9aN@'
p122
tp123
Rp124
ag10
(g14
S'^\xfec\x8c\xacHN@'
p125
tp126
Rp127
ag10
(g14
S'\xaey\xc8\r\xfc\x97O@'
p128
tp129
Rp130
ag10
(g14
S'\xd2\xef\xc5\x88O\xc4M@'
p131
tp132
Rp133
ag10
(g14
S'V\x07\x17L\r/N@'
p134
tp135
Rp136
ag10
(g14
S'#\xbc|BN\xa2K@'
p137
tp138
Rp139
ag10
(g14
S'\x9d:`I\x06\x8dN@'
p140
tp141
Rp142
ag10
(g14
S']o\xd1!W\xe3L@'
p143
tp144
Rp145
ag10
(g14
S'\xbf\x97be\xbedL@'
p146
tp147
Rp148
ag10
(g14
S'\xf60=a\x9b4L@'
p149
tp150
Rp151
ag10
(g14
S'\xf7\xf2\xd1\xb3\xe3\xd7K@'
p152
tp153
Rp154
ag10
(g14
S'&\xa8\xc5 \x88\x8dK@'
p155
tp156
Rp157
ag10
(g14
S'\xe3O\xf0$\xa0eL@'
p158
tp159
Rp160
ag10
(g14
S'\x11\xf2}AO\xadL@'
p161
tp162
Rp163
ag10
(g14
S'\x18w\x1c5\x84KK@'
p164
tp165
Rp166
ag10
(g14
S' e1o\x97+L@'
p167
tp168
Rp169
ag10
(g14
S'\xbe\x9c!__\x13K@'
p170
tp171
Rp172
ag10
(g14
S'\xfa\xbdJj\x98\x87M@'
p173
tp174
Rp175
ag10
(g14
S'O\xbb\x01\x8fl\xf9J@'
p176
tp177
Rp178
ag10
(g14
S"w'Ga\x9bnJ@"
p179
tp180
Rp181
ag10
(g14
S'\xc2+\x9e`\x1a\xf9K@'
p182
tp183
Rp184
ag10
(g14
S'*z\xf4e\xe3\x0eJ@'
p185
tp186
Rp187
ag10
(g14
S'}K#\xe6\xd3\x05L@'
p188
tp189
Rp190
ag10
(g14
S'\x0c\x15\xd8\xb0\xb0\x8fJ@'
p191
tp192
Rp193
ag10
(g14
S'\x1e\xb4\xdbj$\xfeK@'
p194
tp195
Rp196
ag10
(g14
S';\x8e\xc6\x87\x0b]J@'
p197
tp198
Rp199
ag10
(g14
S'\x02\t\xa1Z4\xe5J@'
p200
tp201
Rp202
ag10
(g14
S'\xcbt\xf2!?\x03J@'
p203
tp204
Rp205
ag10
(g14
S'\\\xed\x1a\xe3\x14#K@'
p206
tp207
Rp208
ag10
(g14
S'\xaa:\xbd\x8f\x18AK@'
p209
tp210
Rp211
ag10
(g14
S'\xcb\xc7\x98\xaf\t\xb9I@'
p212
tp213
Rp214
ag10
(g14
S'^\xc6\xca\x81\xd2{J@'
p215
tp216
Rp217
ag10
(g14
S'\x97\x1fV\x84PzI@'
p218
tp219
Rp220
ag10
(g14
S'K\xde\xea\xd2\x16\x99I@'
p221
tp222
Rp223
ag10
(g14
S'n\x91=[l\xa4I@'
p224
tp225
Rp226
ag10
(g14
S'\xfd\x00e\x00`-J@'
p227
tp228
Rp229
ag10
(g14
S'n<\xb1\x816\xdbI@'
p230
tp231
Rp232
ag10
(g14
S'$\x11P\x86\r2J@'
p233
tp234
Rp235
ag10
(g14
S'\x9dC\xc4)\xd2\x91I@'
p236
tp237
Rp238
ag10
(g14
S'\xba\xd4]\xdbL\x06J@'
p239
tp240
Rp241
ag10
(g14
S'-\xd5o\x9dn\xb2I@'
p242
tp243
Rp244
ag10
(g14
S'htv\x02i\xcaI@'
p245
tp246
Rp247
ag10
(g14
S'\xf90\xfeW\xf3\xabI@'
p248
tp249
Rp250
ag10
(g14
S"~\xf8gz\x92'I@"
p251
tp252
Rp253
ag10
(g14
S'\x9bm\xafSavI@'
p254
tp255
Rp256
ag10
(g14
S'#\xbf\x90\xf3\xe9\x96I@'
p257
tp258
Rp259
ag10
(g14
S'\x9a\xf0\x1a6\x1a-J@'
p260
tp261
Rp262
ag10
(g14
S'\xb4\x138\xf7\xdb\xd4I@'
p263
tp264
Rp265
ag10
(g14
S'A\x04)\xd0\x00\x82I@'
p266
tp267
Rp268
ag10
(g14
S'@\x8f]\x95e\x1cJ@'
p269
tp270
Rp271
ag10
(g14
S'\xaa\x19\xe6"\x97*I@'
p272
tp273
Rp274
ag10
(g14
S'\x9d5\xb9\x14\xef\x86I@'
p275
tp276
Rp277
ag10
(g14
S'\xec\xc4\x12\xa0\x03\x85I@'
p278
tp279
Rp280
ag10
(g14
S'\xf7\xff\x00)\x02PI@'
p281
tp282
Rp283
ag10
(g14
S'\xc07dY\xa9\x90I@'
p284
tp285
Rp286
ag10
(g14
S'B6\x1b\xbc\x8a\x01J@'
p287
tp288
Rp289
ag10
(g14
S'\x95\x93\x83`\xc5mI@'
p290
tp291
Rp292
ag10
(g14
S'\xf0\xf2\xb0\x17Z_I@'
p293
tp294
Rp295
ag10
(g14
S'\xb3\xe3\x10%q\x15I@'
p296
tp297
Rp298
ag10
(g14
S'\xfd;\xc3\xb0\xa7SI@'
p299
tp300
Rp301
ag10
(g14
S"\x96\x03\x03'\xb31I@"
p302
tp303
Rp304
ag10
(g14
S'\x19\x9b?;\x8fyI@'
p305
tp306
Rp307
ag10
(g14
S'\x90\xf7\xf8g\x16<I@'
p308
tp309
Rp310
ag10
(g14
S'\xb7\x1cO\xb2\xe9\x08I@'
p311
tp312
Rp313
ag10
(g14
S'\x17\xaa\xfd\x86\xbf0I@'
p314
tp315
Rp316
ag10
(g14
S'\x86\\\x1c)"rI@'
p317
tp318
Rp319
ag10
(g14
S'T\xb3\xfet9\nI@'
p320
tp321
Rp322
ag10
(g14
S'\x9d-\x80\x14\x9b\xb9H@'
p323
tp324
Rp325
ag10
(g14
S'F(\x91\xc3\xa0#I@'
p326
tp327
Rp328
ag10
(g14
S'\r\x9b\xce8\x02\xd1H@'
p329
tp330
Rp331
ag10
(g14
S"\x1a/\xd2'\xeb\xd8H@"
p332
tp333
Rp334
ag10
(g14
S'\xbe\xbc\xb1\x84\xa2\xc3H@'
p335
tp336
Rp337
ag10
(g14
S'\x97\xc6\xa5\x14g\x9fH@'
p338
tp339
Rp340
ag10
(g14
S'$\xb0\xbb\xb7\xa6\xdbH@'
p341
tp342
Rp343
ag10
(g14
S'9\xd19\xef\xd3\xe7H@'
p344
tp345
Rp346
ag10
(g14
S'^Z\xf3Z;JI@'
p347
tp348
Rp349
ag10
(g14
S'\xa5\xb1\xf1d\xeb\xb2H@'
p350
tp351
Rp352
ag10
(g14
S'?\xad\x1a\x9c\xce\xb8H@'
p353
tp354
Rp355
ag10
(g14
S'\x03\xcc2\x86\x07\xbeH@'
p356
tp357
Rp358
ag10
(g14
S'lK3\x8a\xdf\xaeH@'
p359
tp360
Rp361
ag10
(g14
S'\x08\xad\xc1\x18\x1c\xa1H@'
p362
tp363
Rp364
ag10
(g14
S'\xbc\x88\xcc7\xd6\xbaH@'
p365
tp366
Rp367
ag10
(g14
S'][\x1e\xf9\x18\xc4H@'
p368
tp369
Rp370
ag10
(g14
S'X\x01\xb7\xb6\xe0\xd5H@'
p371
tp372
Rp373
ag10
(g14
S'\xb4\x1bk"\x80\x92H@'
p374
tp375
Rp376
ag10
(g14
S'\xc1(.\x15G\x9eH@'
p377
tp378
Rp379
ag10
(g14
S'\x9b\xbf(\xf0\xda\x8cH@'
p380
tp381
Rp382
ag10
(g14
S'\xde\xceL,B\x9dH@'
p383
tp384
Rp385
ag10
(g14
S'\x9e\x0f-\xa4\x0cKH@'
p386
tp387
Rp388
ag10
(g14
S'!v\x90\xb1\xb7jH@'
p389
tp390
Rp391
ag10
(g14
S'&W\xc5C\xf1tH@'
p392
tp393
Rp394
ag10
(g14
S'2l\xa6\xf0\x92\x80H@'
p395
tp396
Rp397
ag10
(g14
S'\xccE\xfe\xfe\xd8\x82H@'
p398
tp399
Rp400
ag10
(g14
S'u\xd4\xd6\x06\x9a_H@'
p401
tp402
Rp403
ag10
(g14
S'(\xbe\xc36`VH@'
p404
tp405
Rp406
ag10
(g14
S'Pf}V\x91\x90H@'
p407
tp408
Rp409
ag10
(g14
S'\xb6gj`\xcbeH@'
p410
tp411
Rp412
ag10
(g14
S'\x8c\xe1\n\xc7\xf4FH@'
p413
tp414
Rp415
ag10
(g14
S'&\xff\x82\x07v\x84H@'
p416
tp417
Rp418
ag10
(g14
S'L1\xcaa\xb1tH@'
p419
tp420
Rp421
ag10
(g14
S'Y\xc2Y\xbd\xb6\x8cH@'
p422
tp423
Rp424
ag10
(g14
S'\x9c8\x0f\x1e\xcdPH@'
p425
tp426
Rp427
ag10
(g14
S'\xff]k\xf7\xb1\x80H@'
p428
tp429
Rp430
ag10
(g14
S'\xdf\\8G\x9b0H@'
p431
tp432
Rp433
ag10
(g14
S'G\xc9t\x9ciWH@'
p434
tp435
Rp436
ag10
(g14
S'\xb7C\x81\xa6]kH@'
p437
tp438
Rp439
ag10
(g14
S'p\xb2\xb5\x9f\x05\x16H@'
p440
tp441
Rp442
ag10
(g14
S'\xc3\xabf1\xa4\x12H@'
p443
tp444
Rp445
ag10
(g14
S'N\xbbZ\xcaS6H@'
p446
tp447
Rp448
ag10
(g14
S'\xfdo\xf0\xf3\x19\x1aH@'
p449
tp450
Rp451
ag10
(g14
S'\x06\xd6\xd9!b>H@'
p452
tp453
Rp454
ag10
(g14
S'`\xbf\x0fU\xa5 H@'
p455
tp456
Rp457
ag10
(g14
S'\xa6\xa71\xd5_#H@'
p458
tp459
Rp460
ag10
(g14
S'\xb9\xc2Kt\xa2\xfcG@'
p461
tp462
Rp463
ag10
(g14
S'\xb4"\xec\xea\xfeaH@'
p464
tp465
Rp466
ag10
(g14
S'\xb4?\x8bb\xef"H@'
p467
tp468
Rp469
ag10
(g14
S'p\x1f\x8cu\x1e(H@'
p470
tp471
Rp472
ag10
(g14
S'cD&\x9d\x918H@'
p473
tp474
Rp475
ag10
(g14
S"\x01\xfe'\xeb8CH@"
p476
tp477
Rp478
ag10
(g14
S'\xb2\xa7\xe3\x10\xdc\x07H@'
p479
tp480
Rp481
ag10
(g14
S'd\xe1\x00^\xbf\xf3G@'
p482
tp483
Rp484
ag10
(g14
S'N\rs\x92\xd0\x13H@'
p485
tp486
Rp487
ag10
(g14
S'\x8e\xa3#\x94\xb7\xdaG@'
p488
tp489
Rp490
ag10
(g14
S'\\\xb4\xb1\xbbf\x14H@'
p491
tp492
Rp493
ag10
(g14
S'\xe8\x18\xff\xadZ\xeeG@'
p494
tp495
Rp496
ag10
(g14
S'\xd4C\xc7A\xa0\x0cH@'
p497
tp498
Rp499
ag10
(g14
S'\xf1w\xc2\x96(\x18H@'
p500
tp501
Rp502
ag10
(g14
S'\\>\x1e\xb1B\x04H@'
p503
tp504
Rp505
ag10
(g14
S'\x00c\xb0\x895\xe9G@'
p506
tp507
Rp508
ag10
(g14
S'\x87\xd5\x8eoI\tH@'
p509
tp510
Rp511
ag10
(g14
S'\x99\xef\x1c\x96\xd7\xeaG@'
p512
tp513
Rp514
ag10
(g14
S'\xa3^\xc9\x97\x83\xf5G@'
p515
tp516
Rp517
ag10
(g14
S'(\xdd\xec#?\xd4G@'
p518
tp519
Rp520
ag10
(g14
S'\xd3kh#\xd2\xd8G@'
p521
tp522
Rp523
ag10
(g14
S'/\x98\\\xc6e\xd3G@'
p524
tp525
Rp526
ag10
(g14
S'!\xbe\x9c\x84\xca\xcfG@'
p527
tp528
Rp529
ag10
(g14
S'\xe8\x1c\xe75P\xcfG@'
p530
tp531
Rp532
ag10
(g14
S'\x80\x05^Z\xed\xedG@'
p533
tp534
Rp535
ag10
(g14
S'\xf7:\x94\x13M\xf2G@'
p536
tp537
Rp538
ag10
(g14
S'\xed\xf2,\xeb\xc8\xdeG@'
p539
tp540
Rp541
ag10
(g14
S'\xc8\x89\x7fl\xca\xeaG@'
p542
tp543
Rp544
ag10
(g14
S'd6\x02_\xb5\xddG@'
p545
tp546
Rp547
ag10
(g14
S'~\x89\xe3\x1d\x0e\xeeG@'
p548
tp549
Rp550
ag10
(g14
S'\x1f6\x9f\xa0\x15\xdaG@'
p551
tp552
Rp553
ag10
(g14
S'\x8f\xc97\xf1\xa9\xd6G@'
p554
tp555
Rp556
ag10
(g14
S'Xj \xb5<\xc7G@'
p557
tp558
Rp559
ag10
(g14
S'\xcd\x0c(/\x1d\xebG@'
p560
tp561
Rp562
ag10
(g14
S'\x7f\x0c\x14F\xea\xd0G@'
p563
tp564
Rp565
ag10
(g14
S'W\xc3\xc5|r\xcbG@'
p566
tp567
Rp568
ag10
(g14
S'\xf9\xe8\xb2\x93\xe1TH@'
p569
tp570
Rp571
ag10
(g14
S'$\x83\x8e\x12\x86iH@'
p572
tp573
Rp574
ag10
(g14
S'h6\xa4\xbcR9H@'
p575
tp576
Rp577
ag10
(g14
S'\xb5\x94\xf2\xc7\xae6H@'
p578
tp579
Rp580
ag10
(g14
S'\xa6\x85\xc1:\xa3EH@'
p581
tp582
Rp583
ag10
(g14
S'\x95\xb9\x13YsqH@'
p584
tp585
Rp586
ag10
(g14
S'6\xb6E]\x18:H@'
p587
tp588
Rp589
ag10
(g14
S'4\xae\xa9\xfc\x99+H@'
p590
tp591
Rp592
ag10
(g14
S'\x977\x86\xe6h-H@'
p593
tp594
Rp595
ag10
(g14
S'\xdb\xfd\x89\x85\x19%H@'
p596
tp597
Rp598
ag10
(g14
S'\xb8\xbdG\x7f|&H@'
p599
tp600
Rp601
ag10
(g14
S'\xd2i3\x06\xe15H@'
p602
tp603
Rp604
ag10
(g14
S'\x11\x8f\x01/\xd36H@'
p605
tp606
Rp607
ag10
(g14
S'\xc5?\xae\xef\xf5\x1cH@'
p608
tp609
Rp610
asasS'pos'
p611
(lp612
(dp613
g4
(lp614
I0
aI10
aI20
aI30
aI40
aI50
aI60
aI70
aI80
aI90
aI100
aI110
aI120
aI130
aI140
aI150
aI160
aI170
aI180
aI190
aI200
aI210
aI220
aI230
aI240
aI250
aI260
aI270
aI280
aI290
aI300
aI310
aI320
aI330
aI340
aI350
aI360
aI370
aI380
aI390
aI400
aI410
aI420
aI430
aI440
aI450
aI460
aI470
aI480
aI490
aI500
aI510
aI520
aI530
aI540
aI550
aI560
aI570
aI580
aI590
aI600
aI610
aI620
aI630
aI640
aI650
aI660
aI670
aI680
aI690
aI700
aI710
aI720
aI730
aI740
aI750
aI760
aI770
aI780
aI790
aI800
aI810
aI820
aI830
aI840
aI850
aI860
aI870
aI880
aI890
aI900
aI910
aI920
aI930
aI940
aI950
aI960
aI970
aI980
aI990
aI1000
aI1010
aI1020
aI1030
aI1040
aI1050
aI1060
aI1070
aI1080
aI1090
aI1100
aI1110
aI1120
aI1130
aI1140
aI1150
aI1160
aI1170
aI1180
aI1190
aI1200
aI1210
aI1220
aI1230
aI1240
aI1250
aI1260
aI1270
aI1280
aI1290
aI1300
aI1310
aI1320
aI1330
aI1340
aI1350
aI1360
aI1370
aI1380
aI1390
aI1400
aI1410
aI1420
aI1430
aI1440
aI1450
aI1460
aI1470
aI1480
aI1490
aI1500
aI1510
aI1520
aI1530
aI1540
aI1550
aI1560
aI1570
aI1580
aI1590
aI1600
aI1610
aI1620
aI1630
aI1640
aI1650
aI1660
aI1670
aI1680
aI1690
aI1700
aI1710
aI1720
aI1730
aI1740
aI1750
aI1760
aI1770
aI1780
aI1790
aI1800
aI1810
aI1820
aI1830
aI1840
aI1850
aI1860
aI1870
aI1880
aI1890
aI1900
aI1910
aI1920
aI1930
aI1940
aI1950
aI1960
aI1970
aI1980
asg611
(lp615
I0
aI4
aI4
aI7
aI7
aI10
aI10
aI11
aI14
aI17
aI22
aI24
aI27
aI29
aI29
aI29
aI31
aI31
aI32
aI32
aI33
aI33
aI34
aI35
aI37
aI38
aI38
aI38
aI40
aI41
aI41
aI41
aI42
aI42
aI42
aI42
aI42
aI42
aI42
aI42
aI42
aI42
aI43
aI43
aI43
aI43
aI43
aI43
aI43
aI43
aI43
aI43
aI43
aI43
aI43
aI43
aI43
aI43
aI44
aI44
aI44
aI44
aI44
aI44
aI44
aI44
aI44
aI44
aI44
aI44
aI44
aI45
aI45
aI45
aI45
aI45
aI45
aI45
aI45
aI45
aI45
aI45
aI46
aI46
aI46
aI46
aI46
aI46
aI46
aI46
aI46
aI46
aI46
aI46
aI46
aI46
aI46
aI46
aI46
aI46
aI46
aI46
aI46
aI46
aI46
aI46
aI46
aI46
aI46
aI46
aI46
aI46
aI46
aI46
aI46
aI46
aI46
aI46
aI46
aI46
aI46
aI46
aI46
aI46
aI46
aI46
aI46
aI46
aI46
aI46
aI46
aI46
aI46
aI46
aI46
aI46
aI46
aI46
aI46
aI46
aI46
aI46
aI46
aI46
aI46
aI46
aI46
aI46
aI46
aI46
aI46
aI46
aI46
aI46
aI46
aI46
aI46
aI46
aI46
aI46
aI46
aI46
aI46
aI46
aI46
aI46
aI46
aI46
aI46
aI46
aI46
aI46
aI46
aI46
aI46
aI46
aI46
aI46
aI46
aI46
aI46
aI46
aI46
aI46
aI46
aI47
aI47
aI47
aI47
aI47
aI47
aI47
aI47
aI47
aI47
aI47
aI47
aI47
aI47
asas.