(dp0
S'est'
p1
(lp2
(dp3
S'x'
p4
(lp5
I60
aI70
aI77
aI88
aI98
aI107
aI121
aI129
aI138
aI144
aI152
aI159
aI168
aI180
aI189
aI202
aI212
aI223
aI229
aI240
aI252
aI261
aI270
aI278
aI287
aI300
aI304
aI312
aI322
aI335
aI344
aI351
aI361
aI369
aI375
aI381
aI387
aI396
aI409
aI416
aI422
aI432
aI444
aI454
aI466
aI476
aI481
aI490
aI499
aI510
aI517
aI529
aI538
aI547
aI553
aI558
aI569
aI578
aI586
aI596
aI603
aI620
aI624
aI637
aI647
aI655
aI667
aI676
aI683
aI696
aI702
aI713
aI720
aI729
aI740
aI754
aI759
aI775
aI789
aI793
aI800
aI809
aI816
aI822
aI831
aI835
aI842
aI851
aI858
aI865
aI869
aI879
aI883
aI888
aI898
aI910
aI915
aI921
aI928
aI934
aI941
aI950
aI956
aI967
aI975
aI984
aI992
aI996
aI1001
aI1009
aI1012
aI1019
aI1027
aI1031
aI1040
aI1049
aI1059
aI1067
aI1079
aI1084
aI1090
aI1099
aI1104
aI1109
aI1114
aI1115
aI1119
aI1128
aI1131
aI1136
aI1143
aI1150
aI1155
aI1161
aI1167
aI1171
aI1178
aI1183
aI1193
aI1198
aI1201
aI1207
aI1213
aI1221
aI1229
aI1239
aI1243
aI1251
aI1255
aI1261
aI1267
aI1272
aI1275
aI1281
aI1284
aI1286
aI1292
aI1295
aI1296
aI1300
aI1307
aI1310
aI1313
aI1316
aI1323
aI1328
aI1336
aI1340
aI1345
aI1347
aI1348
aI1356
aI1361
aI1365
aI1369
aI1372
aI1382
aI1386
aI1393
aI1396
aI1399
aI1405
aI1408
aI1414
aI1416
aI1420
aI1422
aI1427
aI1429
aI1435
aI1436
aI1439
aI1440
aI1443
aI1448
aI1454
aI1457
aI1467
aI1470
aI1477
aI1480
aI1488
aI1494
aI1495
aI1504
aI1506
aI1510
aI1514
aI1520
aI1525
aI1526
aI1528
aI1533
aI1538
aI1542
aI1544
aI1548
aI1550
aI1555
aI1558
aI1560
aI1562
aI1568
aI1573
aI1580
aI1581
aI1585
aI1588
aI1591
aI1593
aI1594
aI1598
aI1600
aI1603
aI1604
aI1608
aI1609
aI1615
aI1622
aI1624
aI1626
aI1631
aI1633
aI1635
aI1637
aI1641
aI1646
aI1647
aI1649
aI1651
aI1655
aI1656
aI1660
aI1662
aI1664
aI1668
aI1669
aI1671
aI1674
aI1678
aI1682
aI1683
aI1687
aI1689
aI1693
aI1695
aI1698
aI1699
aI1702
aI1704
aI1705
aI1706
aI1710
aI1711
aI1713
aI1717
aI1718
aI1720
aI1722
aI1730
aI1732
aI1736
aI1739
aI1741
aI1742
aI1745
aI1747
aI1750
aI1751
aI1753
aI1755
aI1756
aI1758
aI1759
aI1762
aI1765
aI1767
aI1769
aI1772
aI1773
aI1774
aI1776
aI1777
aI1779
aI1780
aI1782
aI1785
aI1787
aI1789
aI1793
aI1795
aI1797
aI1798
aI1800
aI1802
aI1804
aI1807
aI1809
aI1811
aI1812
aI1815
aI1816
aI1819
aI1822
aI1823
aI1824
aI1825
aI1826
aI1827
aI1830
aI1831
aI1832
aI1833
aI1834
aI1836
aI1838
aI1840
aI1841
aI1843
aI1844
aI1845
aI1847
aI1848
aI1850
aI1851
aI1852
aI1856
aI1859
aI1860
aI1861
aI1862
aI1863
aI1865
aI1868
aI1870
aI1871
aI1873
aI1874
aI1877
aI1880
aI1883
aI1885
aI1887
aI1890
aI1891
aI1892
aI1895
aI1898
aI1900
aI1902
aI1903
aI1904
aI1906
aI1907
aI1910
aI1911
aI1913
aI1915
aI1916
aI1917
aI1918
aI1920
aI1921
aI1922
aI1923
aI1927
aI1928
aI1931
aI1932
aI1935
aI1936
aI1938
aI1939
aI1941
aI1943
aI1944
aI1948
aI1951
aI1952
aI1953
aI1954
aI1956
aI1959
aI1960
aI1961
aI1964
aI1967
aI1968
aI1972
aI1974
aI1976
aI1977
aI1978
aI1979
aI1980
aI1981
aI1983
aI1984
aI1985
aI1986
aI1987
aI1988
aI1990
aI1991
aI1995
aI1998
aI1999
asg1
(lp6
cnumpy.core.multiarray
scalar
p7
(cnumpy
dtype
p8
(S'f8'
p9
I0
I1
tp10
Rp11
(I3
S'<'
p12
NNNI-1
I-1
I0
tp13
bS'\x9c\\\xd9\xec\xc85k@'
p14
tp15
Rp16
ag7
(g11
S'\x00\x00\x00\x00\x00\x00\x00\x00'
p17
tp18
Rp19
ag7
(g11
S'1\xad\x15\x1cr\xfaj@'
p20
tp21
Rp22
ag7
(g11
S'I]\xe4\x9f\xa6\x11h@'
p23
tp24
Rp25
ag7
(g11
S'\xb9\xff\x03U\xc5Df@'
p26
tp27
Rp28
ag7
(g11
S'G\n\xd6`\xd3vb@'
p29
tp30
Rp31
ag7
(g11
S'!\x11\xba\xf6\n\xc6^@'
p32
tp33
Rp34
ag7
(g11
S'\xf7\xa0\xe8\xae\x9b`Z@'
p35
tp36
Rp37
ag7
(g11
S'gY\xdb\xe7z\xa7b@'
p38
tp39
Rp40
ag7
(g11
S'\x04\xc5\xec\x7ft\x94a@'
p41
tp42
Rp43
ag7
(g11
S'\xd4\x95\x10\xb3\xd1\xa4_@'
p44
tp45
Rp46
ag7
(g11
S'\xa2$p\xc0\x0e\xa3b@'
p47
tp48
Rp49
ag7
(g11
S'\xcf\x92\xfc\xd6S\x15b@'
p50
tp51
Rp52
ag7
(g11
S'\xadGU)\n(a@'
p53
tp54
Rp55
ag7
(g11
S'\xb8V\xcd\xacY.`@'
p56
tp57
Rp58
ag7
(g11
S'\x04\xd8O\x03\x19Q_@'
p59
tp60
Rp61
ag7
(g11
S'R\xee\x88\xdab+]@'
p62
tp63
Rp64
ag7
(g11
S'\xd7\xfa\xcd\xe4\xe8\xa1[@'
p65
tp66
Rp67
ag7
(g11
S'\x044m-\xea\x18Z@'
p68
tp69
Rp70
ag7
(g11
S'\x1e\x82L\xa4I\xb9X@'
p71
tp72
Rp73
ag7
(g11
S'\x04\xe2{\xc2\xd2|W@'
p74
tp75
Rp76
ag7
(g11
S'\xdf\xbe\xa6\x94\x7f^V@'
p77
tp78
Rp79
ag7
(g11
S'\x8f*\x9f\xf63ZU@'
p80
tp81
Rp82
ag7
(g11
S'\x03\x98`\xbf\x8alT@'
p83
tp84
Rp85
ag7
(g11
S'\x02\xe7\x11\xa2\xaf\x92S@'
p86
tp87
Rp88
ag7
(g11
S'V\xea+]k\x8fS@'
p89
tp90
Rp91
ag7
(g11
S'f\x9c\xd1\x8a\xd3\xceR@'
p92
tp93
Rp94
ag7
(g11
S'\x88\xbc\x02\xdb\x7f\x1cR@'
p95
tp96
Rp97
ag7
(g11
S'\xcd5\xe7\x00\xe9vQ@'
p98
tp99
Rp100
ag7
(g11
S'\x9d6\xc3\xc9\x93\xbcR@'
p101
tp102
Rp103
ag7
(g11
S'S=\xc5\xfe\xb0\x1cR@'
p104
tp105
Rp106
ag7
(g11
S'\x173\t\xe6\x1e\x87Q@'
p107
tp108
Rp109
ag7
(g11
S'\xefK\x86w\xab\xb2R@'
p110
tp111
Rp112
ag7
(g11
S'M\xf4j\x83\x9e!R@'
p113
tp114
Rp115
ag7
(g11
S'x\xe0\xbf\x00\xf2\xb7V@'
p116
tp117
Rp118
ag7
(g11
S'\x9e\xad\xb3\xb6\x15\x9fV@'
p119
tp120
Rp121
ag7
(g11
S'\x91`\xcd\xb8\xd6\x05W@'
p122
tp123
Rp124
ag7
(g11
S'V\xd8\x85\xe2~%V@'
p125
tp126
Rp127
ag7
(g11
S'vw`\xd4\xde\x84U@'
p128
tp129
Rp130
ag7
(g11
S'\xe3\xaf\xde\x9eu\x85U@'
p131
tp132
Rp133
ag7
(g11
S'\xa97\xeaz\x06bU@'
p134
tp135
Rp136
ag7
(g11
S'`\xeb;3\x83\xdcT@'
p137
tp138
Rp139
ag7
(g11
S'\x88\x96@\x81[]T@'
p140
tp141
Rp142
ag7
(g11
S'\x13\xe4q\xb6\x96\x97S@'
p143
tp144
Rp145
ag7
(g11
S'\xb6\xac\xa4\xb4\x07\x11U@'
p146
tp147
Rp148
ag7
(g11
S'\xfbGX\xd8@\x87U@'
p149
tp150
Rp151
ag7
(g11
S'w7\xa0\x9d\xd7\xd7T@'
p152
tp153
Rp154
ag7
(g11
S'\x0e\x18\x11%\xc0\\T@'
p155
tp156
Rp157
ag7
(g11
S'|\xc3\xd2\xca\xcc.T@'
p158
tp159
Rp160
ag7
(g11
S'\x84\xee\x07\xe6Z\xc5S@'
p161
tp162
Rp163
ag7
(g11
S'b\xda\xb5\xc2 `S@'
p164
tp165
Rp166
ag7
(g11
S'=|\xe8`\x8f\xb0R@'
p167
tp168
Rp169
ag7
(g11
S'J>\xd6\x93Z\xa1R@'
p170
tp171
Rp172
ag7
(g11
S'\x84\x04\xb6\xb8\xd48R@'
p173
tp174
Rp175
ag7
(g11
S'\xa7\xe6\x9e\t\xb6\xf0Q@'
p176
tp177
Rp178
ag7
(g11
S'B\xaf\x19\x0e5\x9dQ@'
p179
tp180
Rp181
ag7
(g11
S'\xb3\xf0F\x89\xafLQ@'
p182
tp183
Rp184
ag7
(g11
S'%\x97{L\xfd\xfeP@'
p185
tp186
Rp187
ag7
(g11
S'\xa4uy\xee\xf8\xb3P@'
p188
tp189
Rp190
ag7
(g11
S'\x9dYP\x8f\x7fkP@'
p191
tp192
Rp193
ag7
(g11
S'\xfd5B\xa2p%P@'
p194
tp195
Rp196
ag7
(g11
S'\xf9\x8f\xf3y[\xc3O@'
p197
tp198
Rp199
ag7
(g11
S'U\xc3\xf3\xd64@O@'
p200
tp201
Rp202
ag7
(g11
S'\xb0\x1d~\x108\xc1N@'
p203
tp204
Rp205
ag7
(g11
S'9%<03FN@'
p206
tp207
Rp208
ag7
(g11
S'\xabc\xf0R\xf7\xceM@'
p209
tp210
Rp211
ag7
(g11
S'ny\xd5lX[M@'
p212
tp213
Rp214
ag7
(g11
S'\xba\xdd\xc1h"\x00O@'
p215
tp216
Rp217
ag7
(g11
S'\xa4\xc7\x822m\x8bN@'
p218
tp219
Rp220
ag7
(g11
S'\x15}\xda\x1e\xb6\xddN@'
p221
tp222
Rp223
ag7
(g11
S'\x81\xae\xden\xd4lN@'
p224
tp225
Rp226
ag7
(g11
S'\x8d\xf0\xd7\xc3 \xffM@'
p227
tp228
Rp229
ag7
(g11
S']G^t\xdcuN@'
p230
tp231
Rp232
ag7
(g11
S'\x9a\xb6\xd0\x87\n\x0bN@'
p233
tp234
Rp235
ag7
(g11
S'FS~\xaf\x1b\xa3M@'
p236
tp237
Rp238
ag7
(g11
S'\xfe\xb8\xe9\xfb\xb2\xb2M@'
p239
tp240
Rp241
ag7
(g11
S'fGc\xe4\xa9NM@'
p242
tp243
Rp244
ag7
(g11
S'"\xc8\xb1\xf89\xedL@'
p245
tp246
Rp247
ag7
(g11
S'\tL\xe6\x81L,N@'
p248
tp249
Rp250
ag7
(g11
S'#\xe0:\xde\x85\xcaM@'
p251
tp252
Rp253
ag7
(g11
S'\x89\xf0\xa6\xfe0kM@'
p254
tp255
Rp256
ag7
(g11
S'j5p~j\xadM@'
p257
tp258
Rp259
ag7
(g11
S'X\xddU\xbb\xc3PM@'
p260
tp261
Rp262
ag7
(g11
S'\xban\x8f\x81X\xf6L@'
p263
tp264
Rp265
ag7
(g11
S'\xef\x0e\xa3g\x14\x9eL@'
p266
tp267
Rp268
ag7
(g11
S'4\x81\xfe\xf9\xe3GL@'
p269
tp270
Rp271
ag7
(g11
S'q\x10f\xddoGL@'
p272
tp273
Rp274
ag7
(g11
S'\xc8\x8e\x0f\x9d9\xf4K@'
p275
tp276
Rp277
ag7
(g11
S'\xb4\x1b\x18\x81\xe7\xa2K@'
p278
tp279
Rp280
ag7
(g11
S'N\x7f\x15\x1a\xf7\x8aM@'
p281
tp282
Rp283
ag7
(g11
S'\x9a^\xdc\xaa\xee6M@'
p284
tp285
Rp286
ag7
(g11
S'%\xaf\xa1\x08\xbf\xe4L@'
p287
tp288
Rp289
ag7
(g11
S'v\xaa\x89\xc8X\x94L@'
p290
tp291
Rp292
ag7
(g11
S'\x12lz)\xadEL@'
p293
tp294
Rp295
ag7
(g11
S'\x94Z\x14\x0b\xae\xf8K@'
p296
tp297
Rp298
ag7
(g11
S'\x85\x8f<\xe5M\xadK@'
p299
tp300
Rp301
ag7
(g11
S'\xb1\x98.\xc0\x7fcK@'
p302
tp303
Rp304
ag7
(g11
S'\x8a\xce\x0b-7\x1bK@'
p305
tp306
Rp307
ag7
(g11
S'5G\xdf>h\xd4J@'
p308
tp309
Rp310
ag7
(g11
S"u'\x0e\x84\x07\x8fJ@"
p311
tp312
Rp313
ag7
(g11
S'\x8c\xbb,\x00\nKJ@'
p314
tp315
Rp316
ag7
(g11
S'\x07K\xc9\x02\x9b\x8bK@'
p317
tp318
Rp319
ag7
(g11
S'(\xa7\x1c\xddxFK@'
p320
tp321
Rp322
ag7
(g11
S'\x02\x8eMZ\xffEK@'
p323
tp324
Rp325
ag7
(g11
S'/\n\xbe\xe5\xdc\x02K@'
p326
tp327
Rp328
ag7
(g11
S'\xde\x88\x9c\xcd\x01\xc1J@'
p329
tp330
Rp331
ag7
(g11
S'K:\x16\xced\x80J@'
p332
tp333
Rp334
ag7
(g11
S'9\xe1\x02\xfc\xfc@J@'
p335
tp336
Rp337
ag7
(g11
S'\xd7\xf6\xc9\xc0\xc1\x02J@'
p338
tp339
Rp340
ag7
(g11
S'\xef"\x8c\r\xfd\xd6I@'
p341
tp342
Rp343
ag7
(g11
S'\x87\xc5\xad+\xda\x9aI@'
p344
tp345
Rp346
ag7
(g11
S'\xfb=p\xac\xcc_I@'
p347
tp348
Rp349
ag7
(g11
S'\x91\x86\xc1!\xcd%I@'
p350
tp351
Rp352
ag7
(g11
S'\x93\x0f\xe4`\xd4\xecH@'
p353
tp354
Rp355
ag7
(g11
S'\x16\xc3z\x7f\xdb\xb4H@'
p356
tp357
Rp358
ag7
(g11
S'\xb5\xca\x87\x90\xe9JI@'
p359
tp360
Rp361
ag7
(g11
S'\xdb\xa7Q\x1a\x18\x13I@'
p362
tp363
Rp364
ag7
(g11
S'p\xec\xc4\xe7:\xdcH@'
p365
tp366
Rp367
ag7
(g11
S'k\xdd\x17\xc3K\xa6H@'
p368
tp369
Rp370
ag7
(g11
S'\x12\xf1\xf0\xabDqH@'
p371
tp372
Rp373
ag7
(g11
S'\xee\xcc,\xd5\x1f=H@'
p374
tp375
Rp376
ag7
(g11
S'\x87\x87\xc0\xa2\xd7\tH@'
p377
tp378
Rp379
ag7
(g11
S'\xd1\x8e\xb6\xa7f\xd7G@'
p380
tp381
Rp382
ag7
(g11
S'\xf3\xaeD\xa4\xc7\xa5G@'
p383
tp384
Rp385
ag7
(g11
S'\x93\xce\xf9\x83\xf5tG@'
p386
tp387
Rp388
ag7
(g11
S'i\x0c\x02\\\xebDG@'
p389
tp390
Rp391
ag7
(g11
S'\x1f\x00\x80i\xa4\x15G@'
p392
tp393
Rp394
ag7
(g11
S'\x07\xf4\xf9\x0f\x1c\xe7F@'
p395
tp396
Rp397
ag7
(g11
S'\x1f\x00\xda\xd7M\xb9F@'
p398
tp399
Rp400
ag7
(g11
S'\x1e\x00\x00m5\x8cF@'
p401
tp402
Rp403
ag7
(g11
S'\x9c\xefjE\xf2{F@'
p404
tp405
Rp406
ag7
(g11
S'\xb8\xc4\xa5RZZK@'
p407
tp408
Rp409
ag7
(g11
S'a\x1e\x91\x00N%K@'
p410
tp411
Rp412
ag7
(g11
S'P\x80\x9d\xe5\r\xf1J@'
p413
tp414
Rp415
ag7
(g11
S'\xf4G]o\x95\xbdJ@'
p416
tp417
Rp418
ag7
(g11
S'I\xb1S\x0f\x9d\xbbJ@'
p419
tp420
Rp421
ag7
(g11
S'\n_\xbe\xf6J\x89J@'
p422
tp423
Rp424
ag7
(g11
S'\xcf\xd7w\xed\xb4WJ@'
p425
tp426
Rp427
ag7
(g11
S'M"\xe8\xdc\xd6&J@'
p428
tp429
Rp430
ag7
(g11
S'\x91m\x95\xcc\xac\xf6I@'
p431
tp432
Rp433
ag7
(g11
S'\x18\xb4\x10\xe12\xc7I@'
p434
tp435
Rp436
ag7
(g11
S'\xad\x16\xeeZe\x98I@'
p437
tp438
Rp439
ag7
(g11
S'\x06[\xc8\x95@jI@'
p440
tp441
Rp442
ag7
(g11
S'm0A\x0fCVI@'
p443
tp444
Rp445
ag7
(g11
S'vf\xdf\xe8\xb9FI@'
p446
tp447
Rp448
ag7
(g11
S'\xbc5\x01\xfd9$I@'
p449
tp450
Rp451
ag7
(g11
S'/Z\xce\x8c$\xf8H@'
p452
tp453
Rp454
ag7
(g11
S' O\xb6\xa7\xa8\xccH@'
p455
tp456
Rp457
ag7
(g11
S'\xc8\x13\xf50\xc3\xa1H@'
p458
tp459
Rp460
ag7
(g11
S'\x8di*!qwH@'
p461
tp462
Rp463
ag7
(g11
S'\x8bM\xa3\x85\xafMH@'
p464
tp465
Rp466
ag7
(g11
S'\xc0\xb2\xaa\x7f{$H@'
p467
tp468
Rp469
ag7
(g11
S"w'\xe1C\xd2\xfbG@"
p470
tp471
Rp472
ag7
(g11
S'\xce\x14\x9b\x19\xb1\xd3G@'
p473
tp474
Rp475
ag7
(g11
S'\x86KEZ\x15\xacG@'
p476
tp477
Rp478
ag7
(g11
S']\x95\xcfp\xfc\x84G@'
p479
tp480
Rp481
ag7
(g11
S'\xa3\x05\x1d\xd9c^G@'
p482
tp483
Rp484
ag7
(g11
S'\xa3\xc7y\x1fI8G@'
p485
tp486
Rp487
ag7
(g11
S's,\x16\xe0\xa9\x12G@'
p488
tp489
Rp490
ag7
(g11
S'\x13\xbd\x86\xc6\x83\xedF@'
p491
tp492
Rp493
ag7
(g11
S'\xb2\x18I\x8d\xd4\xc8F@'
p494
tp495
Rp496
ag7
(g11
S'\xa3iM\xfd\x99\xa4F@'
p497
tp498
Rp499
ag7
(g11
S'Q>\x84\xed\xd1\x80F@'
p500
tp501
Rp502
ag7
(g11
S'\xe3\x95pBz]F@'
p503
tp504
Rp505
ag7
(g11
S'\xa1\xf2\xbd\xed\x90:F@'
p506
tp507
Rp508
ag7
(g11
S'~F\xda\xed\x13\x18F@'
p509
tp510
Rp511
ag7
(g11
S'\x80\xb1\x10\x05<%F@'
p512
tp513
Rp514
ag7
(g11
S'\xdbf\xf0tI\x03F@'
p515
tp516
Rp517
ag7
(g11
S'\x01\x97VZ\xbe\xe1E@'
p518
tp519
Rp520
ag7
(g11
S'&\x00\x1b\xdf\x98\xc0E@'
p521
tp522
Rp523
ag7
(g11
S'\x07b%8\xd7\x9fE@'
p524
tp525
Rp526
ag7
(g11
S'M\xaf\x1a\xa5w\x7fE@'
p527
tp528
Rp529
ag7
(g11
S'`"\rpx_E@'
p530
tp531
Rp532
ag7
(g11
S'\xd2\x17/\xed\xd7?E@'
p533
tp534
Rp535
ag7
(g11
S'\xcc\x91\x88z\x94 E@'
p536
tp537
Rp538
ag7
(g11
S'II\xaf\x7f\xac\x01E@'
p539
tp540
Rp541
ag7
(g11
S'\r3\x81m\x1e\xe3D@'
p542
tp543
Rp544
ag7
(g11
S'\x99_\xe1\xbd\xe8\xc4D@'
p545
tp546
Rp547
ag7
(g11
S'X\x1ew\xf3\t\xa7D@'
p548
tp549
Rp550
ag7
(g11
S'^Mo\x99\x80\x89D@'
p551
tp552
Rp553
ag7
(g11
S'#\xc0?CKlD@'
p554
tp555
Rp556
ag7
(g11
S'r\xa8l\x8chOD@'
p557
tp558
Rp559
ag7
(g11
S'z\x92\xb5b\x80\xc4K@'
p560
tp561
Rp562
ag7
(g11
S'\x13\x9a\x98@\xa8\x9dK@'
p563
tp564
Rp565
ag7
(g11
S'sV\x1d5<wK@'
p566
tp567
Rp568
ag7
(g11
S'\xfeC\x8d\x7f:QK@'
p569
tp570
Rp571
ag7
(g11
S'}4\xd8h\xa1+K@'
p572
tp573
Rp574
ag7
(g11
S'>\x90A%c\x0fK@'
p575
tp576
Rp577
ag7
(g11
S'Z\xa9\x86\x1b\x8a\xeaJ@'
p578
tp579
Rp580
ag7
(g11
S'\xc8\x92\xd8\xe3\x14\xc6J@'
p581
tp582
Rp583
ag7
(g11
S'\x86#\xbb\xea\x01\xa2J@'
p584
tp585
Rp586
ag7
(g11
S'VNd\xdf\xb1\x05K@'
p587
tp588
Rp589
ag7
(g11
S'\x98\xc8\x8fG\xaa\xe1J@'
p590
tp591
Rp592
ag7
(g11
S'\x9e\xbb\x89D\x02\xbeJ@'
p593
tp594
Rp595
ag7
(g11
S'd\xf3\xef[\xb8\x9aJ@'
p596
tp597
Rp598
ag7
(g11
S'\xaa;#\x1b\xcbwJ@'
p599
tp600
Rp601
ag7
(g11
S'\x9b\xaf\x14\x179UJ@'
p602
tp603
Rp604
ag7
(g11
S'z\x10n\xd4\x14[J@'
p605
tp606
Rp607
ag7
(g11
S'\xbae\xa6T\x019J@'
p608
tp609
Rp610
ag7
(g11
S'\xde\xee?\x81E\x17J@'
p611
tp612
Rp613
ag7
(g11
S'&=\xc3\xb6\n\x16J@'
p614
tp615
Rp616
ag7
(g11
S'\xae\xd5\xe0X\xd1\xf4I@'
p617
tp618
Rp619
ag7
(g11
S'$\xb1&1\xec\xd3I@'
p620
tp621
Rp622
ag7
(g11
S'\xb6\xe2\xfc\x00Z\xb3I@'
p623
tp624
Rp625
ag7
(g11
S"\xdfzm'\xfd\xbdI@"
p626
tp627
Rp628
ag7
(g11
S'YYf*\x9a\xdaL@'
p629
tp630
Rp631
ag7
(g11
S'\x06\x9c\xe4\xb2\xbe\xb6L@'
p632
tp633
Rp634
ag7
(g11
S"?\x86'\xec;\x93L@"
p635
tp636
Rp637
ag7
(g11
S'\x86\x1a\xb6\x8e\x10pL@'
p638
tp639
Rp640
ag7
(g11
S'\xd9\xa8\x1c\x15\xc6UL@'
p641
tp642
Rp643
ag7
(g11
S'\x9e\xcc\x07c;3L@'
p644
tp645
Rp646
ag7
(g11
S'\xb5,\x1b\x82\x04\x11L@'
p647
tp648
Rp649
ag7
(g11
S'\x1e\xca\xdbH\x17\xf8K@'
p650
tp651
Rp652
ag7
(g11
S'\xd1\xe4\xb1\xbay\xd6K@'
p653
tp654
Rp655
ag7
(g11
S'C\xff\x85\x99,\xb5K@'
p656
tp657
Rp658
ag7
(g11
S'\xd9M\x0e\xc6.\x94K@'
p659
tp660
Rp661
ag7
(g11
S'\xc5\x94\xc0\xd2/\x10N@'
p662
tp663
Rp664
ag7
(g11
S'\x90|\x08\xf7\xdc\xb3M@'
p665
tp666
Rp667
ag7
(g11
S'\x142!\xe0\x87vM@'
p668
tp669
Rp670
ag7
(g11
S'\xc2\xc7\xb6rrxM@'
p671
tp672
Rp673
ag7
(g11
S'\x19z\x9a\xb4\n+N@'
p674
tp675
Rp676
ag7
(g11
S'\x89\x0e\x1a\x90u2N@'
p677
tp678
Rp679
ag7
(g11
S':++\xf4~cM@'
p680
tp681
Rp682
ag7
(g11
S'\xb2\xbb\x9a\xcaL\xd3N@'
p683
tp684
Rp685
ag7
(g11
S'\xd6\xcd9\xfb4\xd7O@'
p686
tp687
Rp688
ag7
(g11
S'\xd8\xbc\xdb|[\xabO@'
p689
tp690
Rp691
ag7
(g11
S'\x10dwE\x96\xadM@'
p692
tp693
Rp694
ag7
(g11
S'\xb5\x06\xc3\xca\x05\nO@'
p695
tp696
Rp697
ag7
(g11
S'\x88\x1f\xce@@\xe7O@'
p698
tp699
Rp700
ag7
(g11
S'\xfa\xd7@P\xd1*P@'
p701
tp702
Rp703
ag7
(g11
S'.\xda\x0b\x05\x07qP@'
p704
tp705
Rp706
ag7
(g11
S':\xf98NM\x9bN@'
p707
tp708
Rp709
ag7
(g11
S'\x02\x10\x93\xdeTJO@'
p710
tp711
Rp712
ag7
(g11
S'\xd0S\xcdz\x84\x0cN@'
p713
tp714
Rp715
ag7
(g11
S'\xdb\x0b_\xa2\x83\x1eO@'
p716
tp717
Rp718
ag7
(g11
S'\x0b\xf6\xee\xb8O/P@'
p719
tp720
Rp721
ag7
(g11
S'\x85\xec7\xf3\xcatO@'
p722
tp723
Rp724
ag7
(g11
S'}\xc0\x83\xc1.tO@'
p725
tp726
Rp727
ag7
(g11
S'\xb3\xdb\x81\xf5QGM@'
p728
tp729
Rp730
ag7
(g11
S'\x07\xf6\xd0\xf9\x97\xf8O@'
p731
tp732
Rp733
ag7
(g11
S'\x08\xaf\x03Z\x08\x90M@'
p734
tp735
Rp736
ag7
(g11
S'\xd7\xc3\xf2\xa2\x05sM@'
p737
tp738
Rp739
ag7
(g11
S'\xe8<\xafu@\x93M@'
p740
tp741
Rp742
ag7
(g11
S'V\x8d\xd2\x05\xad9M@'
p743
tp744
Rp745
ag7
(g11
S'\xae+\xe2\x13\x11\xf7M@'
p746
tp747
Rp748
ag7
(g11
S'D)\xb14\xe3\xbbN@'
p749
tp750
Rp751
ag7
(g11
S'\xeao)\x13Y\x0eM@'
p752
tp753
Rp754
ag7
(g11
S'pP\x15O\xderM@'
p755
tp756
Rp757
ag7
(g11
S'tg\xacj\xa7\xefL@'
p758
tp759
Rp760
ag7
(g11
S'h+\xb7]\x89\xc6L@'
p761
tp762
Rp763
ag7
(g11
S"\xf1\xf3'\xf66JM@"
p764
tp765
Rp766
ag7
(g11
S'\x0b5\xd2\xc0\xf29M@'
p767
tp768
Rp769
ag7
(g11
S'\x1a\xbcd"-\xb0M@'
p770
tp771
Rp772
ag7
(g11
S'H\x83\x07B\xb0WM@'
p773
tp774
Rp775
ag7
(g11
S'J\x86\x02k\x7f\xb5L@'
p776
tp777
Rp778
ag7
(g11
S'\xd7\x06H\x9f<\xb2L@'
p779
tp780
Rp781
ag7
(g11
S'\x14\x1f\xa2F$\xaeL@'
p782
tp783
Rp784
ag7
(g11
S'\xa8\x83\xd2z\xea\rN@'
p785
tp786
Rp787
ag7
(g11
S'\xa3\x18\xf9\x9c#dM@'
p788
tp789
Rp790
ag7
(g11
S'</0\xb3\xd8\x0bM@'
p791
tp792
Rp793
ag7
(g11
S'<\xec\xff\xf6\xa3XM@'
p794
tp795
Rp796
ag7
(g11
S'\xe4(\xafO\xa9\xa1L@'
p797
tp798
Rp799
ag7
(g11
S'\x82vt\xb8\x07+M@'
p800
tp801
Rp802
ag7
(g11
S'\x0b\x84G\x95+\x9aL@'
p803
tp804
Rp805
ag7
(g11
S'\x18D\xbf\xf3\x1a\x04L@'
p806
tp807
Rp808
ag7
(g11
S'\x12\x82Cr+\x9fK@'
p809
tp810
Rp811
ag7
(g11
S'\xc4\xcdI\x83\xff\xe0K@'
p812
tp813
Rp814
ag7
(g11
S'J62\xfb87L@'
p815
tp816
Rp817
ag7
(g11
S'\x11\xfa\xab2[\xf8K@'
p818
tp819
Rp820
ag7
(g11
S'\x7fR\xee[\xa9\x97K@'
p821
tp822
Rp823
ag7
(g11
S'\xbd\x98\x02{\x85*L@'
p824
tp825
Rp826
ag7
(g11
S'\xc8\x1b\x93\x84\xb5<K@'
p827
tp828
Rp829
ag7
(g11
S'1$\xd1[\x81\xdaK@'
p830
tp831
Rp832
ag7
(g11
S'\xf7\xf3w\x9e\xc9;K@'
p833
tp834
Rp835
ag7
(g11
S'R\x84,1mLK@'
p836
tp837
Rp838
ag7
(g11
S'\xdde\xd7y\xc1\x82J@'
p839
tp840
Rp841
ag7
(g11
S'a\x0e\xce\xf9\xc1wK@'
p842
tp843
Rp844
ag7
(g11
S'\xd4\xbb\xaaS?\xfeJ@'
p845
tp846
Rp847
ag7
(g11
S'\x0b;9)y\xceJ@'
p848
tp849
Rp850
ag7
(g11
S'\x0b\xa6\x0e\xa5z\xecJ@'
p851
tp852
Rp853
ag7
(g11
S'1k#\xfd\x91\x1eK@'
p854
tp855
Rp856
ag7
(g11
S'\x92\x98^\xf1\xce\xd0J@'
p857
tp858
Rp859
ag7
(g11
S'\xa6\xde\xa8\xdb\x9a#K@'
p860
tp861
Rp862
ag7
(g11
S'4H\xbd4]\xbaJ@'
p863
tp864
Rp865
ag7
(g11
S'\x9b\xc4\x7fEn\xf3J@'
p866
tp867
Rp868
ag7
(g11
S'$\x08\xd5@\x8c%K@'
p869
tp870
Rp871
ag7
(g11
S'F\xc8aF\xd6\x1dJ@'
p872
tp873
Rp874
ag7
(g11
S'\xb1\xd5\x92N"\x86J@'
p875
tp876
Rp877
ag7
(g11
S';\xe8\x97c\x1e\xf9J@'
p878
tp879
Rp880
ag7
(g11
S'\xbc\xb8\x0e\x05\xe3\\J@'
p881
tp882
Rp883
ag7
(g11
S'\xa8\x83w\x81.\xcfJ@'
p884
tp885
Rp886
ag7
(g11
S'\xee\xcaE\xa6\xfbvJ@'
p887
tp888
Rp889
ag7
(g11
S'O\x9a\x1c\x00\x02\xbbJ@'
p890
tp891
Rp892
ag7
(g11
S'\xa84B\xdc\xe0{J@'
p893
tp894
Rp895
ag7
(g11
S'x\xe0x\x01\xa7\x89J@'
p896
tp897
Rp898
ag7
(g11
S'\x8d\x0c\xa4\x06\x0b\xdbI@'
p899
tp900
Rp901
ag7
(g11
S'\x98\xb6~y\x81iJ@'
p902
tp903
Rp904
ag7
(g11
S'\xf2\xe1\xc0p\x9c"K@'
p905
tp906
Rp907
ag7
(g11
S'c\xc5\xb1\x81\x89\xb0J@'
p908
tp909
Rp910
ag7
(g11
S'c\xa0\x17\x9d\x17eJ@'
p911
tp912
Rp913
ag7
(g11
S'_\xc9,c\xe50K@'
p914
tp915
Rp916
ag7
(g11
S'\x86MS\x8eRjK@'
p917
tp918
Rp919
ag7
(g11
S'\xf5\xb4\xab\xb4\x98xK@'
p920
tp921
Rp922
ag7
(g11
S'\xcfY\xcb\xb9\xa6\xb0J@'
p923
tp924
Rp925
ag7
(g11
S'\xec\xf1\x06\x0c\xe5\rK@'
p926
tp927
Rp928
ag7
(g11
S'\xfeG\xd4\n\xc2\xabJ@'
p929
tp930
Rp931
ag7
(g11
S'\xfc1\x0fN\xb4\x8bJ@'
p932
tp933
Rp934
ag7
(g11
S'h\xea\xe4\x04\x8f\x11K@'
p935
tp936
Rp937
ag7
(g11
S'\x18\xe7\x1a\xab\\/K@'
p938
tp939
Rp940
ag7
(g11
S'\xb0\x7f\xb4j\x15JJ@'
p941
tp942
Rp943
ag7
(g11
S'L\xfcf\x16E\x1cK@'
p944
tp945
Rp946
ag7
(g11
S'/\xa9\x16\x17\xd8EJ@'
p947
tp948
Rp949
ag7
(g11
S'\n\xd5\x80\xd6\xee{J@'
p950
tp951
Rp952
ag7
(g11
S'\xa0\x0b\x13\xe6\xaf\x87J@'
p953
tp954
Rp955
ag7
(g11
S'0\x015\xf4+\x1aK@'
p956
tp957
Rp958
ag7
(g11
S' \xb2\x0b\xf0\x86\xc1J@'
p959
tp960
Rp961
ag7
(g11
S"~X\x14\xa1V'J@"
p962
tp963
Rp964
ag7
(g11
S'\xf3\x81}V\xaf\xc4I@'
p965
tp966
Rp967
ag7
(g11
S'!(\x96\xa8\xc4/J@'
p968
tp969
Rp970
ag7
(g11
S'b\x86\xa4Dl\xadJ@'
p971
tp972
Rp973
ag7
(g11
S'\xf8yH\xef\xf5HJ@'
p974
tp975
Rp976
ag7
(g11
S'\xc1Aq;\xdf\x82J@'
p977
tp978
Rp979
ag7
(g11
S'."\x98\x92n\xf4I@'
p980
tp981
Rp982
ag7
(g11
S'\x94N\x8cz?\xecI@'
p983
tp984
Rp985
ag7
(g11
S'\xb8\x17\tt\xbb\xa2I@'
p986
tp987
Rp988
ag7
(g11
S'\xa6\xebE\xd7H\xf3I@'
p989
tp990
Rp991
ag7
(g11
S'\xb1\x9e\x1c\\\xae\xe7I@'
p992
tp993
Rp994
ag7
(g11
S'\xdfq\xfe\x9cW\x06J@'
p995
tp996
Rp997
ag7
(g11
S'\xb8\xe9\x83\xbc\x07\xf2I@'
p998
tp999
Rp1000
ag7
(g11
S'?.\xcbE\xb5\xbfI@'
p1001
tp1002
Rp1003
ag7
(g11
S'\x0f\xc2G\x81\xdc\xa5I@'
p1004
tp1005
Rp1006
ag7
(g11
S'\xbe\xba\xf6\x9e\xd4\xb5I@'
p1007
tp1008
Rp1009
ag7
(g11
S'\x16\x12yy\x01\xa2I@'
p1010
tp1011
Rp1012
ag7
(g11
S'\xfe\xd25\xcfL\x8eI@'
p1013
tp1014
Rp1015
ag7
(g11
S'\xe7<\x16Z\xb6zI@'
p1016
tp1017
Rp1018
ag7
(g11
S'&\xcd\xd9\xd4=gI@'
p1019
tp1020
Rp1021
ag7
(g11
S'\xd3\x0e\x13\xfb\xe2SI@'
p1022
tp1023
Rp1024
ag7
(g11
S'!y$\x89\xa5@I@'
p1025
tp1026
Rp1027
ag7
(g11
S'\xfe[=<\x85-I@'
p1028
tp1029
Rp1030
ag7
(g11
S'\x95\xdaV\xd2\x81\x1aI@'
p1031
tp1032
Rp1033
ag7
(g11
S'\x8b\xf30\n\x9b\x07I@'
p1034
tp1035
Rp1036
ag7
(g11
S'}\x96O\xa3\xd0\xf4H@'
p1037
tp1038
Rp1039
ag7
(g11
S'\xb3\xc6\xf7]"\xe2H@'
p1040
tp1041
Rp1042
ag7
(g11
S'\x9a\xca,\xfb\x8f\xcfH@'
p1043
tp1044
Rp1045
ag7
(g11
S'\xc8g\xad<\x19\xbdH@'
p1046
tp1047
Rp1048
ag7
(g11
S'`+\xf1\xe4\xbd\xaaH@'
p1049
tp1050
Rp1051
ag7
(g11
S'|\xbe%\xb7}\x98H@'
p1052
tp1053
Rp1054
ag7
(g11
S'lF,wX\x86H@'
p1055
tp1056
Rp1057
ag7
(g11
S'\x85\xd0\x96\xe9MtH@'
p1058
tp1059
Rp1060
ag7
(g11
S'Q\xc9\xa5\xd3]bH@'
p1061
tp1062
Rp1063
ag7
(g11
S'\xde~E\xfb\x87PH@'
p1064
tp1065
Rp1066
ag7
(g11
S"\xea\xad\x0b'\xcc>H@"
p1067
tp1068
Rp1069
ag7
(g11
S'\xc8\x195\x1e*-H@'
p1070
tp1071
Rp1072
ag7
(g11
S'\xbe.\xa3\xa8\xa1\x1bH@'
p1073
tp1074
Rp1075
ag7
(g11
S'\x9c\xae\xd9\x8e2\nH@'
p1076
tp1077
Rp1078
ag7
(g11
S'sg\xfc\x99\xdc\xf8G@'
p1079
tp1080
Rp1081
ag7
(g11
S'\x1a\xf4\xcc\x93\x9f\xe7G@'
p1082
tp1083
Rp1084
ag7
(g11
S'l\x86\xa8F{\xd6G@'
p1085
tp1086
Rp1087
ag7
(g11
S'\xf6\xba\x85}o\xc5G@'
p1088
tp1089
Rp1090
ag7
(g11
S'\xfcu\xf2\x03|\xb4G@'
p1091
tp1092
Rp1093
ag7
(g11
S'\x92\xc9\x11\xa6\xa0\xa3G@'
p1094
tp1095
Rp1096
ag7
(g11
S'\xaa\xe4\x990\xdd\x92G@'
p1097
tp1098
Rp1099
ag7
(g11
S'\xee\n\xd2p1\x82G@'
p1100
tp1101
Rp1102
ag7
(g11
S' \x95\x904\x9dqG@'
p1103
tp1104
Rp1105
ag7
(g11
S'\xfd\xf98J aG@'
p1106
tp1107
Rp1108
ag7
(g11
S'[\xdf\xb9\x80\xbaPG@'
p1109
tp1110
Rp1111
ag7
(g11
S'`3\x8b\xa7k@G@'
p1112
tp1113
Rp1114
ag7
(g11
S'\xbeM\xac\x8e30G@'
p1115
tp1116
Rp1117
ag7
(g11
S'\xaa\x18\xa2\x06\x12 G@'
p1118
tp1119
Rp1120
ag7
(g11
S'\x88Au\xe0\x06\x10G@'
p1121
tp1122
Rp1123
ag7
(g11
S'\x17q\xb0\xed\x11\x00G@'
p1124
tp1125
Rp1126
ag7
(g11
S'\x03\x8b^\x003\xf0F@'
p1127
tp1128
Rp1129
ag7
(g11
S'\x9d\xf4\x08\xebi\xe0F@'
p1130
tp1131
Rp1132
ag7
(g11
S'\xcd\xe2\xb5\x80\xb6\xd0F@'
p1133
tp1134
Rp1135
ag7
(g11
S'\xdb\xae\xe6\x94\x18\xc1F@'
p1136
tp1137
Rp1138
ag7
(g11
S'%2\x96\xfb\x8f\xb1F@'
p1139
tp1140
Rp1141
ag7
(g11
S'z(7\x89\x1c\xa2F@'
p1142
tp1143
Rp1144
ag7
(g11
S'\x18\x99\xb2\x12\xbe\x92F@'
p1145
tp1146
Rp1147
ag7
(g11
S'\x11Ffmt\x83F@'
p1148
tp1149
Rp1150
ag7
(g11
S'\x14"#o?tF@'
p1151
tp1152
Rp1153
ag7
(g11
S'n\xcc+\xee\x1eeF@'
p1154
tp1155
Rp1156
ag7
(g11
S'\x1e\x133\xc1\x12VF@'
p1157
tp1158
Rp1159
ag7
(g11
S'\xf1zZ\xbf\x1aGF@'
p1160
tp1161
Rp1162
ag7
(g11
S'\x81\xcd0\xc068F@'
p1163
tp1164
Rp1165
ag7
(g11
S'\xf8\xac\xb0\x9bf)F@'
p1166
tp1167
Rp1168
ag7
(g11
S'\x85-?*\xaa\x1aF@'
p1169
tp1170
Rp1171
ag7
(g11
S']t\xaaD\x01\x0cF@'
p1172
tp1173
Rp1174
ag7
(g11
S'@\\(\xc4k\xfdE@'
p1175
tp1176
Rp1177
ag7
(g11
S'P\x1fU\x82\xe9\xeeE@'
p1178
tp1179
Rp1180
ag7
(g11
S'9\x062Yz\xe0E@'
p1181
tp1182
Rp1183
ag7
(g11
S'\x86\x1c$#\x1e\xd2E@'
p1184
tp1185
Rp1186
ag7
(g11
S'\n\xea\xf2\xba\xd4\xc3E@'
p1187
tp1188
Rp1189
ag7
(g11
S'G1\xc7\xfb\x9d\xb5E@'
p1190
tp1191
Rp1192
ag7
(g11
S'\xc7\xb2)\xc1y\xa7E@'
p1193
tp1194
Rp1195
ag7
(g11
S'@\xf5\x01\xe7g\x99E@'
p1196
tp1197
Rp1198
ag7
(g11
S'q\x12\x95Ih\x8bE@'
p1199
tp1200
Rp1201
ag7
(g11
S'\xad\xa4\x13\x02\xe5\xc8E@'
p1202
tp1203
Rp1204
ag7
(g11
S'\x97\x9a\xff\xd2\xd8\xbaE@'
p1205
tp1206
Rp1207
ag7
(g11
S'I\xb3*\xb6\xde\xacE@'
p1208
tp1209
Rp1210
ag7
(g11
S'\x0cG\xcc\x88\xf6\x9eE@'
p1211
tp1212
Rp1213
ag7
(g11
S'\x12\xbat( \x91E@'
p1214
tp1215
Rp1216
ag7
(g11
S':`\x0cs[\x83E@'
p1217
tp1218
Rp1219
ag7
(g11
S'\x16e\xd2F\xa8uE@'
p1220
tp1221
Rp1222
ag7
(g11
S'\r\xb8[\x82\x06hE@'
p1223
tp1224
Rp1225
ag7
(g11
S'\xaa\xfc\x91\x04vZE@'
p1226
tp1227
Rp1228
ag7
(g11
S'\xe2~\xb2\xac\xf6LE@'
p1229
tp1230
Rp1231
ag7
(g11
S'W+MZ\x88?E@'
p1232
tp1233
Rp1234
ag7
(g11
S'x\x8bC\xed*2E@'
p1235
tp1236
Rp1237
ag7
(g11
S'{\xc5\xc7E\xde$E@'
p1238
tp1239
Rp1240
ag7
(g11
S'\x12\xa0[D\xa2\x17E@'
p1241
tp1242
Rp1243
ag7
(g11
S'\xd3\x89\xcf\xc9v\nE@'
p1244
tp1245
Rp1246
ag7
(g11
S'E\xa4A\xb7[\xfdD@'
p1247
tp1248
Rp1249
ag7
(g11
S'z\xd2\x1c\xeeP\xf0D@'
p1250
tp1251
Rp1252
ag7
(g11
S'&\xcb\x17PV\xe3D@'
p1253
tp1254
Rp1255
ag7
(g11
S'6.4\xbfk\xd6D@'
p1256
tp1257
Rp1258
ag7
(g11
S'\xc1\x9d\xbd\x1d\x91\xc9D@'
p1259
tp1260
Rp1261
ag7
(g11
S'L\xdaHN\xc6\xbcD@'
p1262
tp1263
Rp1264
ag7
(g11
S'^\xe2\xb23\x0b\xb0D@'
p1265
tp1266
Rp1267
ag7
(g11
S'F\x15 \xb1_\xa3D@'
p1268
tp1269
Rp1270
ag7
(g11
S'\nY\xfb\xa9\xc3\x96D@'
p1271
tp1272
Rp1273
ag7
(g11
S'\x7fC\xf5\x017\x8aD@'
p1274
tp1275
Rp1276
ag7
(g11
S'`F\x03\x9d\xb9}D@'
p1277
tp1278
Rp1279
ag7
(g11
S'y\xde^_KqD@'
p1280
tp1281
Rp1282
ag7
(g11
S'\xbd\xc5\x84-\xecdD@'
p1283
tp1284
Rp1285
ag7
(g11
S'K(4\xec\x9bXD@'
p1286
tp1287
Rp1288
ag7
(g11
S'M\xdcm\x80ZLD@'
p1289
tp1290
Rp1291
ag7
(g11
S"\xaf\x9cs\xcf'@D@"
p1292
tp1293
Rp1294
asS'Horvitz_Thompson'
p1295
(lp1296
g16
ag19
ag7
(g11
S'\xd9\x8c\x0b9\x88\x14w@'
p1297
tp1298
Rp1299
ag7
(g11
S'!\x11\xba\xf6\n\xc6n@'
p1300
tp1301
Rp1302
ag7
(g11
S'\xd9\x8c\x0b9\x88\x14g@'
p1303
tp1304
Rp1305
ag31
ag34
ag37
ag7
(g11
S'\xa4]\xea\x0f\x03\xc7c@'
p1306
tp1307
Rp1308
ag43
ag46
ag7
(g11
S'\x8f*\x9f\xf63Ze@'
p1309
tp1310
Rp1311
ag7
(g11
S'\x02\xe7\x11\xa2\xaf\x92c@'
p1312
tp1313
Rp1314
ag7
(g11
S'*\x9aK\xa9?\x11b@'
p1315
tp1316
Rp1317
ag7
(g11
S"'\x0f}\xaf\xdf\xc6`@"
p1318
tp1319
Rp1320
ag61
ag7
(g11
S'\x84\xda\x1as\x07\\]@'
p1321
tp1322
Rp1323
ag67
ag70
ag73
ag76
ag79
ag82
ag85
ag88
ag91
ag94
ag97
ag100
ag103
ag106
ag109
ag112
ag115
ag7
(g11
S']#\xaa\x9f\x07(Y@'
p1324
tp1325
Rp1326
ag7
(g11
S'\n\x1b\xe7g\x07pX@'
p1327
tp1328
Rp1329
ag7
(g11
S'JZ\xcb\x16@\xc2W@'
p1330
tp1331
Rp1332
ag7
(g11
S'\x03J\xf6}\xdd\x1dW@'
p1333
tp1334
Rp1335
ag7
(g11
S'a\xa6\xc0\xc4!\x82V@'
p1336
tp1337
Rp1338
ag7
(g11
S'0\xdd1\x8bb\xeeU@'
p1339
tp1340
Rp1341
ag136
ag139
ag142
ag7
(g11
S'8{\x8c\xd7\x1d\xe4S@'
p1342
tp1343
Rp1344
ag7
(g11
S'\x12\x1b\xa0Q\x82\x04V@'
p1345
tp1346
Rp1347
ag151
ag7
(g11
S'3\x89\xba\x85q\x0fU@'
p1348
tp1349
Rp1350
ag7
(g11
S'\xf1u\xc1\\\xbb\x9cT@'
p1351
tp1352
Rp1353
ag160
ag163
ag166
ag7
(g11
S'\xde\x99\x02\xdd\xde\xfeR@'
p1354
tp1355
Rp1356
ag172
ag7
(g11
S'\x83\xdc\xdb\xb2]GR@'
p1357
tp1358
Rp1359
ag178
ag181
ag184
ag187
ag190
ag193
ag196
ag199
ag202
ag205
ag208
ag211
ag214
ag217
ag220
ag223
ag226
ag229
ag232
ag235
ag238
ag241
ag244
ag247
ag250
ag253
ag256
ag259
ag262
ag265
ag268
ag271
ag274
ag277
ag280
ag283
ag286
ag289
ag292
ag295
ag298
ag301
ag304
ag307
ag310
ag313
ag316
ag319
ag322
ag325
ag328
ag331
ag334
ag337
ag340
ag343
ag346
ag349
ag352
ag355
ag358
ag361
ag364
ag367
ag370
ag373
ag376
ag379
ag382
ag385
ag388
ag391
ag394
ag397
ag400
ag403
ag406
ag409
ag412
ag415
ag418
ag421
ag424
ag427
ag430
ag433
ag436
ag439
ag442
ag445
ag448
ag451
ag454
ag457
ag460
ag463
ag466
ag469
ag472
ag475
ag478
ag481
ag484
ag487
ag490
ag493
ag496
ag499
ag502
ag505
ag508
ag511
ag514
ag517
ag520
ag523
ag526
ag529
ag532
ag535
ag538
ag541
ag544
ag547
ag550
ag553
ag556
ag559
ag562
ag565
ag568
ag571
ag574
ag577
ag580
ag583
ag586
ag589
ag592
ag595
ag598
ag601
ag604
ag607
ag610
ag613
ag616
ag619
ag622
ag625
ag628
ag631
ag634
ag637
ag640
ag643
ag646
ag649
ag652
ag655
ag658
ag661
ag7
(g11
S'\xa3\x96\x83%^\nO@'
p1360
tp1361
Rp1362
ag7
(g11
S'\xccL6\xa1\xbf\xe5N@'
p1363
tp1364
Rp1365
ag7
(g11
S'/\xbd\x1f\x1ew\xc1N@'
p1366
tp1367
Rp1368
ag7
(g11
S'\xb5\xda\xa4n\x83\x9dN@'
p1369
tp1370
Rp1371
ag7
(g11
S'\xa9n\xa6j\xe3yN@'
p1372
tp1373
Rp1374
ag7
(g11
S'c\xe3\xdd3\xedpR@'
p1375
tp1376
Rp1377
ag7
(g11
S'r[Q@\xa9[R@'
p1378
tp1379
Rp1380
ag7
(g11
S'=\xc9\xe2\x1f\x96FR@'
p1381
tp1382
Rp1383
ag7
(g11
S'\x0c\x01\xf7y\x88=R@'
p1384
tp1385
Rp1386
ag7
(g11
S'R\x03\xde\x95\xc7(R@'
p1387
tp1388
Rp1389
ag7
(g11
S'\x13\xbd\r\xb65\x14R@'
p1390
tp1391
Rp1392
ag7
(g11
S'\xb9Mt;\xd2\xffQ@'
p1393
tp1394
Rp1395
ag7
(g11
S'\xe8?\xca\x89\x9c\xebQ@'
p1396
tp1397
Rp1398
ag7
(g11
S'B\xf0\x82\x07\x94\xd7Q@'
p1399
tp1400
Rp1401
ag7
(g11
S'J\\\xbd\x1d\xb8\xc3Q@'
p1402
tp1403
Rp1404
ag7
(g11
S'ZV58\x08\xb0Q@'
p1405
tp1406
Rp1407
ag7
(g11
S'\x7f\x1b5\xc5\x83\x9cQ@'
p1408
tp1409
Rp1410
ag7
(g11
S'lH\x875*\x89Q@'
p1411
tp1412
Rp1413
ag7
(g11
S'\x93*i\xfc\xfauQ@'
p1414
tp1415
Rp1416
ag7
(g11
S'\xaaj}\x8f\xf5bQ@'
p1417
tp1418
Rp1419
ag7
(g11
S'\x03\x0e\xbff\x19PQ@'
p1420
tp1421
Rp1422
ag7
(g11
S'\x10\xcct\xfce=Q@'
p1423
tp1424
Rp1425
ag7
(g11
S'\xb1\xb5$\xcd\xda*Q@'
p1426
tp1427
Rp1428
ag7
(g11
S'\xd3+\x88Ww\x18Q@'
p1429
tp1430
Rp1431
ag7
(g11
S'\x1c#\x80\x1c;\x06Q@'
p1432
tp1433
Rp1434
ag7
(g11
S'^\xb2\t\x9f%\xf4P@'
p1435
tp1436
Rp1437
ag7
(g11
S'\xb3\xe92d6\xe2P@'
p1438
tp1439
Rp1440
ag7
(g11
S'\x1c\xf0\x0f\xf3l\xd0P@'
p1441
tp1442
Rp1443
ag7
(g11
S'\xafe\xb0\xd4\xc8\xbeP@'
p1444
tp1445
Rp1446
ag7
(g11
S'E\x08\x15\x94I\xadP@'
p1447
tp1448
Rp1449
ag7
(g11
S'\xe4\x98%\xbe\xee\x9bP@'
p1450
tp1451
Rp1452
ag7
(g11
S'\xea\xff\xa6\xe1\xb7\x8aP@'
p1453
tp1454
Rp1455
ag7
(g11
S']\xae1\x8f\xa4yP@'
p1456
tp1457
Rp1458
ag7
(g11
S'\x85:(Y\xb4hP@'
p1459
tp1460
Rp1461
ag7
(g11
S'06\xae\xd3\xe6WP@'
p1462
tp1463
Rp1464
ag7
(g11
S'\x1c=\x9f\x94;GP@'
p1465
tp1466
Rp1467
ag7
(g11
S'\xd29\x863\xb26P@'
p1468
tp1469
Rp1470
ag7
(g11
S'\x89\xdf\x94IJ&P@'
p1471
tp1472
Rp1473
ag7
(g11
S'\x9aW\x9bq\x03\x16P@'
p1474
tp1475
Rp1476
ag7
(g11
S'\x0c!\x00H\xdd\x05P@'
p1477
tp1478
Rp1479
ag7
(g11
S'\xd5Ap\xd5\xae\xebO@'
p1480
tp1481
Rp1482
ag7
(g11
S'\x11\xc4}\xf2\xe2\xcbO@'
p1483
tp1484
Rp1485
ag7
(g11
S'\xca\x05\x1e)V\xacO@'
p1486
tp1487
Rp1488
ag7
(g11
S'\xf2\xa05\xbe\x07\x8dO@'
p1489
tp1490
Rp1491
ag7
(g11
S'o\x19\x8a\xf9\xf6mO@'
p1492
tp1493
Rp1494
ag7
(g11
S'\x1a\xbf\xb3%#OO@'
p1495
tp1496
Rp1497
ag7
(g11
S'\x86\xe2\x0f\x90\x8b0O@'
p1498
tp1499
Rp1500
ag7
(g11
S']Z\xb3\x88/\x12O@'
p1501
tp1502
Rp1503
ag7
(g11
S'\x1cW]b\x0e\xf4N@'
p1504
tp1505
Rp1506
ag7
(g11
S"8\x83jr'\xd6N@"
p1507
tp1508
Rp1509
ag7
(g11
S'\x8em\xc8\x10z\xb8N@'
p1510
tp1511
Rp1512
ag7
(g11
S'><\xe9\x97\x05\x9bN@'
p1513
tp1514
Rp1515
ag7
(g11
S'\r\xa6\xb7d\xc9}N@'
p1516
tp1517
Rp1518
ag7
(g11
S'`0\x8b\xd6\xc4`N@'
p1519
tp1520
Rp1521
ag7
(g11
S'2\xb0\x1cO\xf7CN@'
p1522
tp1523
Rp1524
ag7
(g11
S"\x1f\x0c{2`'N@"
p1525
tp1526
Rp1527
ag7
(g11
S'\xf6=\x00\xe7\xfe\nN@'
p1528
tp1529
Rp1530
ag7
(g11
S'!\x92F\xd5\xd2\xeeM@'
p1531
tp1532
Rp1533
ag7
(g11
S'Y#\x1eh\xdb\xd2M@'
p1534
tp1535
Rp1536
ag7
(g11
S'\x11\x91\x82\x0c\x18\xb7M@'
p1537
tp1538
Rp1539
ag7
(g11
S"'\xef\x901\x88\x9bM@"
p1540
tp1541
Rp1542
ag7
(g11
S']\xed}H+\x80M@'
p1543
tp1544
Rp1545
ag7
(g11
S'A5\x8c\xc4\x00eM@'
p1546
tp1547
Rp1548
ag7
(g11
S'\x18\xfd\x02\x1b\x08JM@'
p1549
tp1550
Rp1551
ag7
(g11
S'y\xce$\xc3@/M@'
p1552
tp1553
Rp1554
ag7
(g11
S'd\x7f&6\xaa\x14M@'
p1555
tp1556
Rp1557
ag7
(g11
S'r\\&\xefC\xfaL@'
p1558
tp1559
Rp1560
ag7
(g11
S'\x03\x83#k\r\xe0L@'
p1561
tp1562
Rp1563
ag7
(g11
S'7j\xf5(\x06\xc6L@'
p1564
tp1565
Rp1566
ag7
(g11
S's\x99C\xa9-\xacL@'
p1567
tp1568
Rp1569
ag7
(g11
S'|\x8b}n\x83\x92L@'
p1570
tp1571
Rp1572
ag7
(g11
S'\xf4\xbc\xd2\xfc\x06yL@'
p1573
tp1574
Rp1575
ag7
(g11
S'/\xe5*\xda\xb7_L@'
p1576
tp1577
Rp1578
ag7
(g11
S'oX\x1e\x8e\x95FL@'
p1579
tp1580
Rp1581
ag7
(g11
S'c\x92\xee\xa1\x9f-L@'
p1582
tp1583
Rp1584
ag7
(g11
S'\x1a\xe8~\xa0\xd5\x14L@'
p1585
tp1586
Rp1587
ag7
(g11
S'K`M\x167\xfcK@'
p1588
tp1589
Rp1590
ag7
(g11
S'9\xb1k\x91\xc3\xe3K@'
p1591
tp1592
Rp1593
ag7
(g11
S'\x1fcx\xa1z\xcbK@'
p1594
tp1595
Rp1596
ag7
(g11
S'k\x16\x98\xd7[\xb3K@'
p1597
tp1598
Rp1599
ag7
(g11
S'\xd4\xecn\xc6f\x9bK@'
p1600
tp1601
Rp1602
ag7
(g11
S'D\xb6\xb0\\N\xa7L@'
p1603
tp1604
Rp1605
ag7
(g11
S'O\\\x1c\xe4\xb0\x8eL@'
p1606
tp1607
Rp1608
ag7
(g11
S'\x82\x94\x02\x92=vL@'
p1609
tp1610
Rp1611
ag7
(g11
S'\xae\xbe{\xfa\xf3]L@'
p1612
tp1613
Rp1614
ag7
(g11
S'\x08R\x0f\xb3\xd3EL@'
p1615
tp1616
Rp1617
ag7
(g11
S'I\xc9\xadR\xdc-L@'
p1618
tp1619
Rp1620
ag7
(g11
S'\x96\xad\xaaq\r\x16L@'
p1621
tp1622
Rp1623
ag7
(g11
S'\x8a\xbf\xb6\xa9f\xfeK@'
p1624
tp1625
Rp1626
ag7
(g11
S'\xa7=\xda\x95\xe7\xe6K@'
p1627
tp1628
Rp1629
ag7
(g11
S'~Go\xd2\x8f\xcfK@'
p1630
tp1631
Rp1632
ag7
(g11
S'\xf1\\\x1c\xfd^\xb8K@'
p1633
tp1634
Rp1635
ag7
(g11
S'\xe5\xf8\xce\xb4T\xa1K@'
p1636
tp1637
Rp1638
ag7
(g11
S'\xcbF\xb6\x99p\x8aK@'
p1639
tp1640
Rp1641
ag7
(g11
S'V\xf2=M\xb2sK@'
p1642
tp1643
Rp1644
ag7
(g11
S'\xd7\x10\tr\x19]K@'
p1645
tp1646
Rp1647
ag7
(g11
S'\xa7#\xed\xab\xa5FK@'
p1648
tp1649
Rp1650
ag7
(g11
S'\x153\xed\x9fV0K@'
p1651
tp1652
Rp1653
ag958
ag7
(g11
S'\x14T\x14P%\x04K@'
p1654
tp1655
Rp1656
ag7
(g11
S'\x0eW\xfa[B\xeeJ@'
p1657
tp1658
Rp1659
ag7
(g11
S'#\x12q\xc1\x82\xd8J@'
p1660
tp1661
Rp1662
ag7
(g11
S'\x82\xf7\x18+\xe6\xc2J@'
p1663
tp1664
Rp1665
ag973
ag7
(g11
S'\xc3\x02\xd4\xba\x14\x98J@'
p1666
tp1667
Rp1668
ag979
ag7
(g11
S'\xe7\x89Ku\xcbmJ@'
p1669
tp1670
Rp1671
ag7
(g11
S'\x19\x873\x18\xd9XJ@'
p1672
tp1673
Rp1674
ag7
(g11
S'\xbeQ\xf7\xd4\x07DJ@'
p1675
tp1676
Rp1677
ag7
(g11
S'\xa1\x88^]W/J@'
p1678
tp1679
Rp1680
ag7
(g11
S'7}&d\xc7\x1aJ@'
p1681
tp1682
Rp1683
ag997
ag1000
ag7
(g11
S'\xb0\t?x\xd7\xddI@'
p1684
tp1685
Rp1686
ag7
(g11
S'o\n\x9f\x86\xc6\xc9I@'
p1687
tp1688
Rp1689
ag1009
ag1012
ag1015
ag1018
ag1021
ag1024
ag1027
ag1030
ag1033
ag1036
ag1039
ag1042
ag1045
ag1048
ag1051
ag1054
ag1057
ag1060
ag1063
ag1066
ag1069
ag1072
ag1075
ag1078
ag1081
ag1084
ag1087
ag1090
ag1093
ag1096
ag1099
ag1102
ag1105
ag1108
ag1111
ag1114
ag1117
ag1120
ag1123
ag1126
ag1129
ag1132
ag1135
ag1138
ag1141
ag1144
ag1147
ag1150
ag1153
ag1156
ag1159
ag1162
ag1165
ag1168
ag1171
ag1174
ag1177
ag1180
ag1183
ag1186
ag1189
ag1192
ag1195
ag1198
ag1201
ag1204
ag1207
ag1210
ag1213
ag1216
ag1219
ag1222
ag1225
ag1228
ag1231
ag1234
ag1237
ag1240
ag1243
ag1246
ag1249
ag1252
ag1255
ag1258
ag1261
ag1264
ag1267
ag1270
ag1273
ag1276
ag1279
ag1282
ag1285
ag1288
ag1291
ag1294
asS'sigmoid'
p1690
(lp1691
g16
ag7
(g11
S'\x10\xd4\xb8n\x8d\xffg@'
p1692
tp1693
Rp1694
ag22
ag25
ag28
ag7
(g11
S'1\x1e\x0b\\\xb2\x90d@'
p1695
tp1696
Rp1697
ag7
(g11
S'\xb6<\x96\xc1\xbeob@'
p1698
tp1699
Rp1700
ag7
(g11
S'm\x98*\x85\x878a@'
p1701
tp1702
Rp1703
ag40
ag7
(g11
S'\xe5\xdf\xb9\x10\x191b@'
p1704
tp1705
Rp1706
ag7
(g11
S',\xc4/\xa9\x9ada@'
p1707
tp1708
Rp1709
ag49
ag52
ag55
ag58
ag7
(g11
S'\x08\x18:\xf3\x8d\xc1_@'
p1710
tp1711
Rp1712
ag64
ag7
(g11
S'9\x11\x9e\r\xf0f\\@'
p1713
tp1714
Rp1715
ag7
(g11
S'\x1f\x17r\xbe\xdd\xd8Z@'
p1716
tp1717
Rp1718
ag7
(g11
S'\x0c0\n\xb2f\xb9Y@'
p1719
tp1720
Rp1721
ag7
(g11
S'\xde\x01qL\xe7\x88X@'
p1722
tp1723
Rp1724
ag7
(g11
S'?H9\xf3\xa8eX@'
p1725
tp1726
Rp1727
ag7
(g11
S'\xf4\xdd\xbcb3\xcaW@'
p1728
tp1729
Rp1730
ag7
(g11
S'\x86"\xd99\x8e\xa1V@'
p1731
tp1732
Rp1733
ag7
(g11
S'Yl\x8ct+NV@'
p1734
tp1735
Rp1736
ag7
(g11
S'}\xd1\xe5\xf3o\xe1T@'
p1737
tp1738
Rp1739
ag7
(g11
S'\x88\xdc\x1bZBaT@'
p1740
tp1741
Rp1742
ag7
(g11
S'u\xcaK\x81;{T@'
p1743
tp1744
Rp1745
ag7
(g11
S'\x9e\xf4\xcc\tB\x10T@'
p1746
tp1747
Rp1748
ag7
(g11
S'0\xad+\x11/UT@'
p1749
tp1750
Rp1751
ag7
(g11
S'$C\x04\xce\xaa\xa3T@'
p1752
tp1753
Rp1754
ag7
(g11
S'\xa1pn6\x94QT@'
p1755
tp1756
Rp1757
ag7
(g11
S'n T\xfdEaU@'
p1758
tp1759
Rp1760
ag7
(g11
S'\xde\x95\x19\x18\x92\x89T@'
p1761
tp1762
Rp1763
ag118
ag121
ag124
ag127
ag130
ag133
ag7
(g11
S'\n\xb2\xe2>\xee\xd7U@'
p1764
tp1765
Rp1766
ag7
(g11
S'\xad\xa1T_)\xe6T@'
p1767
tp1768
Rp1769
ag7
(g11
S'\xd4\xe5\x13\x8e\xf5dT@'
p1770
tp1771
Rp1772
ag145
ag148
ag7
(g11
S'pk\xd1\xd2K\x96U@'
p1773
tp1774
Rp1775
ag154
ag157
ag7
(g11
S'\xe1k\x17\x1f\\\\T@'
p1776
tp1777
Rp1778
ag7
(g11
S'\xd7gm\x15!\xdaS@'
p1779
tp1780
Rp1781
ag7
(g11
S'),\x97""\x85S@'
p1782
tp1783
Rp1784
ag169
ag7
(g11
S'\xa7\x11FO\xfc\xe0R@'
p1785
tp1786
Rp1787
ag175
ag7
(g11
S"\\{\x07@'\x06R@"
p1788
tp1789
Rp1790
ag7
(g11
S'\xaa\xa6\xb3\xb8>2R@'
p1791
tp1792
Rp1793
ag7
(g11
S'\x82T1h\x07\xc4Q@'
p1794
tp1795
Rp1796
ag7
(g11
S'\xfa\xaev\x96\t\x82Q@'
p1797
tp1798
Rp1799
ag7
(g11
S'D\xb8\xeb\x9c\x856Q@'
p1800
tp1801
Rp1802
ag7
(g11
S'L\xc1W{\xc4\x91P@'
p1803
tp1804
Rp1805
ag7
(g11
S's\xf3\xaf*\xc4\x8bP@'
p1806
tp1807
Rp1808
ag7
(g11
S'\xa6\x1fI\xach\xbdP@'
p1809
tp1810
Rp1811
ag7
(g11
S't$\xe3V\xc8\x94P@'
p1812
tp1813
Rp1814
ag7
(g11
S'/\xd9n\x8d\xd1bO@'
p1815
tp1816
Rp1817
ag7
(g11
S'\x04c\xb7\xef\xbc\x99O@'
p1818
tp1819
Rp1820
ag7
(g11
S'$\xfe\x123gFP@'
p1821
tp1822
Rp1823
ag7
(g11
S'\x04\xe2\xb9\x88\xfb\x90O@'
p1824
tp1825
Rp1826
ag7
(g11
S'r\xa98\xcd\x0f\xbfO@'
p1827
tp1828
Rp1829
ag7
(g11
S'\xa9\x9a1\xc6\xb6kO@'
p1830
tp1831
Rp1832
ag7
(g11
S'\xcc\xdfd\xa3t*O@'
p1833
tp1834
Rp1835
ag7
(g11
S'\xec\xf1>\\\xb0jO@'
p1836
tp1837
Rp1838
ag7
(g11
S'rF\x17\x86\xf4\x86N@'
p1839
tp1840
Rp1841
ag7
(g11
S'\xa9\x10\xb2FB\x96N@'
p1842
tp1843
Rp1844
ag7
(g11
S'B\x82X)HhN@'
p1845
tp1846
Rp1847
ag7
(g11
S'\xca\x80\xd2\xb8\x91GN@'
p1848
tp1849
Rp1850
ag7
(g11
S'\xcflj\x93\xc1\x02P@'
p1851
tp1852
Rp1853
ag7
(g11
S'P\x1e-\x1e$1P@'
p1854
tp1855
Rp1856
ag7
(g11
S'S\x9c\x1a\x932\x8aN@'
p1857
tp1858
Rp1859
ag7
(g11
S'\x03!O=3:N@'
p1860
tp1861
Rp1862
ag7
(g11
S'\xfa\x95_\xff\x85\xdeO@'
p1863
tp1864
Rp1865
ag7
(g11
S')\xab\x13\x84?\xd7N@'
p1866
tp1867
Rp1868
ag7
(g11
S'~M<\xde\xf0\xc1N@'
p1869
tp1870
Rp1871
ag7
(g11
S'h\xb2\xab\x9aT\x90M@'
p1872
tp1873
Rp1874
ag7
(g11
S'.\xea\x9eg]\xb9N@'
p1875
tp1876
Rp1877
ag7
(g11
S'n\xcf\x935{vM@'
p1878
tp1879
Rp1880
ag7
(g11
S'$\xeeG\x11I\xb0L@'
p1881
tp1882
Rp1883
ag7
(g11
S'\xbb8\xe1\x8e*\xcbM@'
p1884
tp1885
Rp1886
ag7
(g11
S'\x98\x89\xc1\x8cA9L@'
p1887
tp1888
Rp1889
ag7
(g11
S'\xe8\x1f\x06\xea~2M@'
p1890
tp1891
Rp1892
ag7
(g11
S'\x9fY1\x9b\t\xd3M@'
p1893
tp1894
Rp1895
ag7
(g11
S'\x1b\xefu\xba\x04\xbfM@'
p1896
tp1897
Rp1898
ag7
(g11
S'\x0b_\xd5\xf3o\x81M@'
p1899
tp1900
Rp1901
ag7
(g11
S'\xb2\xae\xd2*\xd0\x8aN@'
p1902
tp1903
Rp1904
ag7
(g11
S'\xdd\xc3\x9f\xaa8\x19M@'
p1905
tp1906
Rp1907
ag7
(g11
S'[\xb2Im\xe2\xbeM@'
p1908
tp1909
Rp1910
ag7
(g11
S'\xa6.\xe8\xfb\x8d\xdaM@'
p1911
tp1912
Rp1913
ag7
(g11
S'\xdc\xfc\xc6/\x0e\xb2L@'
p1914
tp1915
Rp1916
ag7
(g11
S'\xdf\x14:\x80\x08-L@'
p1917
tp1918
Rp1919
ag7
(g11
S"\xbe8'\xce2\x14L@"
p1920
tp1921
Rp1922
ag7
(g11
S'\xb7\x8f\x1c\x14\xbf\xbeK@'
p1923
tp1924
Rp1925
ag7
(g11
S'Eh\xb3\x84\x8blK@'
p1926
tp1927
Rp1928
ag7
(g11
S'B9\xb8\x1a\xf0\xbfM@'
p1929
tp1930
Rp1931
ag7
(g11
S'\xac\x8b.\xd0\xab\x11M@'
p1932
tp1933
Rp1934
ag7
(g11
S'uY\x96b\x12\xbbN@'
p1935
tp1936
Rp1937
ag7
(g11
S'\xa7\xe5\x116\xee\xd5L@'
p1938
tp1939
Rp1940
ag7
(g11
S'\nS\x98\xc3l\xdeN@'
p1941
tp1942
Rp1943
ag7
(g11
S'\x111(\xa3)\xedM@'
p1944
tp1945
Rp1946
ag7
(g11
S'P\x911\xe7k\x16M@'
p1947
tp1948
Rp1949
ag7
(g11
S'\xd7\x9b\x06_\xca\xaaL@'
p1950
tp1951
Rp1952
ag7
(g11
S'\x9b\x90_\xa8Q\xbdM@'
p1953
tp1954
Rp1955
ag7
(g11
S'\xc4\xdb_\xfb\x01lL@'
p1956
tp1957
Rp1958
ag7
(g11
S'\xaf\xae\x9c\xfa\xb6\x89K@'
p1959
tp1960
Rp1961
ag7
(g11
S'[\xed=\xf4\xe1JL@'
p1962
tp1963
Rp1964
ag7
(g11
S'O\x99b\xcd\xd6OK@'
p1965
tp1966
Rp1967
ag7
(g11
S'Db\xe6\x1e\xa4\xfcJ@'
p1968
tp1969
Rp1970
ag7
(g11
S'\xd5N+\x7f\xef^L@'
p1971
tp1972
Rp1973
ag7
(g11
S'\xefQV\xd5D\xceK@'
p1974
tp1975
Rp1976
ag7
(g11
S'\x0e\xddTX\x17\xadL@'
p1977
tp1978
Rp1979
ag7
(g11
S'\x1f8\xa2\xd8\x8b\x8cL@'
p1980
tp1981
Rp1982
ag7
(g11
S'\x1dI@V\xd93L@'
p1983
tp1984
Rp1985
ag7
(g11
S'\x0cD\xbc\x17\xdf\xa3K@'
p1986
tp1987
Rp1988
ag7
(g11
S'\x90\x84\x05\xfe\xe1\x11L@'
p1989
tp1990
Rp1991
ag7
(g11
S'\xfay\x82\xabs\xfaJ@'
p1992
tp1993
Rp1994
ag7
(g11
S'\xdccO56\xc6J@'
p1995
tp1996
Rp1997
ag7
(g11
S'j\xa5I\xb8\xdfxK@'
p1998
tp1999
Rp2000
ag7
(g11
S'\xf8\x12(\xf0\x92\x07K@'
p2001
tp2002
Rp2003
ag7
(g11
S':T\x8b)\xe9\xe2J@'
p2004
tp2005
Rp2006
ag7
(g11
S'e?\xc0\xd7\xab>K@'
p2007
tp2008
Rp2009
ag7
(g11
S'\x1a\x8b\xb7c\xbf\xf5J@'
p2010
tp2011
Rp2012
ag7
(g11
S'T\xe2^\x84\xd3hJ@'
p2013
tp2014
Rp2015
ag7
(g11
S'\xb8p > \x94J@'
p2016
tp2017
Rp2018
ag7
(g11
S'Q\xf4\xc8>\x7f\xc7M@'
p2019
tp2020
Rp2021
ag7
(g11
S';\xc8P\xdd\x06\xb1L@'
p2022
tp2023
Rp2024
ag7
(g11
S'\xb5\xf6=hJ\xe7L@'
p2025
tp2026
Rp2027
ag7
(g11
S'\x97\xdd\x8b\x90\xf0dL@'
p2028
tp2029
Rp2030
ag7
(g11
S'\x9bxh\x13k\xe1L@'
p2031
tp2032
Rp2033
ag7
(g11
S'R\r0^`\xbeK@'
p2034
tp2035
Rp2036
ag7
(g11
S'\x8a\xae\xc3\x83^\xcdK@'
p2037
tp2038
Rp2039
ag7
(g11
S'\xc8\xa2Col\xb3K@'
p2040
tp2041
Rp2042
ag7
(g11
S'\xa4y\x18ft K@'
p2043
tp2044
Rp2045
ag7
(g11
S'^\x17\xbd*\x9c\x97K@'
p2046
tp2047
Rp2048
ag7
(g11
S"'\xa9\x08\xa4M\xc1J@"
p2049
tp2050
Rp2051
ag7
(g11
S'y\x8a\x98U\\VK@'
p2052
tp2053
Rp2054
ag7
(g11
S'4\xf5\xc7m\x98\x1dK@'
p2055
tp2056
Rp2057
ag7
(g11
S'\xbc\xfe\xf5^\r\x1fL@'
p2058
tp2059
Rp2060
ag7
(g11
S'\x12\xb3\x14A\xfa\x98K@'
p2061
tp2062
Rp2063
ag7
(g11
S'\xeeg\x00\xf4\xd2\xa9K@'
p2064
tp2065
Rp2066
ag7
(g11
S'\x9c\x16\xa9\xa7\xabcL@'
p2067
tp2068
Rp2069
ag7
(g11
S'\x9f1\xda%,VK@'
p2070
tp2071
Rp2072
ag7
(g11
S'&b1\xe4\x908K@'
p2073
tp2074
Rp2075
ag7
(g11
S'\x11\xdd\xf7\xdd\xe2\xf7J@'
p2076
tp2077
Rp2078
ag7
(g11
S'\\\xce\xc5\xf9\xbb\xfbJ@'
p2079
tp2080
Rp2081
ag7
(g11
S'C&\xc9\xd2C\xf3J@'
p2082
tp2083
Rp2084
ag7
(g11
S'\xa1\xb3\x95`\x80\xbeJ@'
p2085
tp2086
Rp2087
ag7
(g11
S'\xca3\x83fY\x9bJ@'
p2088
tp2089
Rp2090
ag7
(g11
S'N&\x9f@q\xc7J@'
p2091
tp2092
Rp2093
ag7
(g11
S'\x7f\xd3Y\xb7^cJ@'
p2094
tp2095
Rp2096
ag7
(g11
S'\xa0\x11Q>b\xfbJ@'
p2097
tp2098
Rp2099
ag7
(g11
S'\x887zi\xacDJ@'
p2100
tp2101
Rp2102
ag7
(g11
S'\xa4\xc4\xd55\x97\x7fJ@'
p2103
tp2104
Rp2105
ag7
(g11
S'\x17\xad?\xbb\xc8\x9aJ@'
p2106
tp2107
Rp2108
ag7
(g11
S'l2\xebd\xd59J@'
p2109
tp2110
Rp2111
ag7
(g11
S'r})\x1f;\x7fJ@'
p2112
tp2113
Rp2114
ag7
(g11
S'\xe5<\x85\x9bVtJ@'
p2115
tp2116
Rp2117
ag7
(g11
S'h\x1c\xb7\xfapLJ@'
p2118
tp2119
Rp2120
ag7
(g11
S'\x90T\xf2K\xf4\xf4I@'
p2121
tp2122
Rp2123
ag7
(g11
S'\xecM\x05*"\x10J@'
p2124
tp2125
Rp2126
ag7
(g11
S'\xda\x01\\\xf5\xe3\xffI@'
p2127
tp2128
Rp2129
ag7
(g11
S'\x92%\xd5\x97{+J@'
p2130
tp2131
Rp2132
ag7
(g11
S'b\xef\xf6`@\xb4I@'
p2133
tp2134
Rp2135
ag7
(g11
S'B\xdb$\xdc\xe13J@'
p2136
tp2137
Rp2138
ag7
(g11
S'L\x1d%[\xf1qI@'
p2139
tp2140
Rp2141
ag7
(g11
S'\xfc\xaeOT\xc4\xd2I@'
p2142
tp2143
Rp2144
ag7
(g11
S'\xce\x0c\xb3\x95l\xe1I@'
p2145
tp2146
Rp2147
ag7
(g11
S'\xf4\xf1\xfe!\\`I@'
p2148
tp2149
Rp2150
ag7
(g11
S'H\xf3H\xbe%mI@'
p2151
tp2152
Rp2153
ag7
(g11
S'\xac\x0c\x99i\x88tI@'
p2154
tp2155
Rp2156
ag7
(g11
S'\x1aRW0\xfaPI@'
p2157
tp2158
Rp2159
ag7
(g11
S'\xaa\x8d)a\x96\x95I@'
p2160
tp2161
Rp2162
ag7
(g11
S"\x80'K\x08\xe6\xf9H@"
p2163
tp2164
Rp2165
ag7
(g11
S'\xe6\xa8\xb79\x97\tI@'
p2166
tp2167
Rp2168
ag7
(g11
S'\xb0\xc8V\xabu\xbeH@'
p2169
tp2170
Rp2171
ag7
(g11
S'\xee\xb6T\xb0\x17mL@'
p2172
tp2173
Rp2174
ag7
(g11
S')\xcc\xad\x97U\xecK@'
p2175
tp2176
Rp2177
ag7
(g11
S'\xca\x8b\xf2\xa4y\x1cL@'
p2178
tp2179
Rp2180
ag7
(g11
S'\xf2\xfdF\xc4w}M@'
p2181
tp2182
Rp2183
ag7
(g11
S'\x82x\x9c:\xb3\xcdK@'
p2184
tp2185
Rp2186
ag7
(g11
S'\xca>\x8e\xc5\x8fZL@'
p2187
tp2188
Rp2189
ag7
(g11
S'Y,j\xc9\x94AL@'
p2190
tp2191
Rp2192
ag7
(g11
S'%\x8b\xfa\xe3\xcb\x8eL@'
p2193
tp2194
Rp2195
ag7
(g11
S'\xe9F\xa7\xda\xad\x9dL@'
p2196
tp2197
Rp2198
ag7
(g11
S']\xf4\x19j\x9f\xe2L@'
p2199
tp2200
Rp2201
ag7
(g11
S'L\x1eMI,\xb1M@'
p2202
tp2203
Rp2204
ag7
(g11
S'\xf0\x13\xbcM*\x9bL@'
p2205
tp2206
Rp2207
ag7
(g11
S'>3\x04\x15\x1b\xfeL@'
p2208
tp2209
Rp2210
ag7
(g11
S'\x00h\x92\x11\xc4\x19L@'
p2211
tp2212
Rp2213
ag7
(g11
S'T\x06>\xef\x15\x8cL@'
p2214
tp2215
Rp2216
ag7
(g11
S'\x18\x10\xbd9\xd2\x90O@'
p2217
tp2218
Rp2219
ag7
(g11
S'qx\x9f\xbf\xfa\xd5M@'
p2220
tp2221
Rp2222
ag7
(g11
S'\x9e\x03\xcc\x17\xe7)M@'
p2223
tp2224
Rp2225
ag7
(g11
S'\xdc\x88\n\xe2\xc1\xc5L@'
p2226
tp2227
Rp2228
ag7
(g11
S'6\xe5+\x9f\x1f\xe2L@'
p2229
tp2230
Rp2231
ag7
(g11
S'\\\x1d\xe5\x7f\x8c\xc1M@'
p2232
tp2233
Rp2234
ag7
(g11
S'\xf0C\xca\xee\x85\xa8L@'
p2235
tp2236
Rp2237
ag7
(g11
S'\xe7\xaf\x9f\x99-JL@'
p2238
tp2239
Rp2240
ag7
(g11
S'\xa7\xfe\xc3\xfe@nM@'
p2241
tp2242
Rp2243
ag7
(g11
S'\xca\xb5n\xcc\x8b\xceM@'
p2244
tp2245
Rp2246
ag7
(g11
S'n2\xa1\x0b\x0ewM@'
p2247
tp2248
Rp2249
ag7
(g11
S'tR\xae\xdet=M@'
p2250
tp2251
Rp2252
ag7
(g11
S'\xe2\\D\x9a\xda\xb0M@'
p2253
tp2254
Rp2255
ag7
(g11
S'rT\xe0\xa4\x80;M@'
p2256
tp2257
Rp2258
ag7
(g11
S'\xe2\xe1|\x8e\x05\x04M@'
p2259
tp2260
Rp2261
ag7
(g11
S'\x84q{fi=M@'
p2262
tp2263
Rp2264
ag7
(g11
S'\xa2\x98\x13\x05=GM@'
p2265
tp2266
Rp2267
ag7
(g11
S'\x92\x85Cj\x18\xe7L@'
p2268
tp2269
Rp2270
ag7
(g11
S'\xd8&\x00\xee\xf4\x9eL@'
p2271
tp2272
Rp2273
ag664
ag667
ag670
ag673
ag676
ag679
ag682
ag685
ag688
ag691
ag694
ag697
ag700
ag703
ag706
ag709
ag712
ag715
ag718
ag721
ag724
ag727
ag730
ag733
ag736
ag739
ag742
ag745
ag748
ag751
ag754
ag757
ag760
ag763
ag766
ag769
ag772
ag775
ag778
ag781
ag784
ag787
ag790
ag793
ag796
ag799
ag802
ag805
ag808
ag811
ag814
ag817
ag820
ag823
ag826
ag829
ag832
ag835
ag838
ag841
ag844
ag847
ag850
ag853
ag856
ag859
ag862
ag865
ag868
ag871
ag874
ag877
ag880
ag883
ag886
ag889
ag892
ag895
ag898
ag901
ag904
ag907
ag910
ag913
ag916
ag919
ag922
ag925
ag928
ag931
ag934
ag937
ag940
ag943
ag946
ag949
ag952
ag955
ag7
(g11
S'\x1c\x0b\xe7\xf4bNK@'
p2274
tp2275
Rp2276
ag961
ag964
ag967
ag970
ag7
(g11
S'3\x15\x07a*\xebJ@'
p2277
tp2278
Rp2279
ag976
ag7
(g11
S'\xf9f\xc7\xc1\xc3\tK@'
p2280
tp2281
Rp2282
ag982
ag985
ag988
ag991
ag994
ag7
(g11
S'\xca\xd8\xe1\xc3\xba\x0fJ@'
p2283
tp2284
Rp2285
ag7
(g11
S'\x16\xbd\xdb\xb7\x94\x1dJ@'
p2286
tp2287
Rp2288
ag1003
ag1006
ag7
(g11
S'`\x12\x0c\x0f\xf6PK@'
p2289
tp2290
Rp2291
ag7
(g11
S'\nW\xfb\x96\x15\xc2I@'
p2292
tp2293
Rp2294
ag7
(g11
S'u\x90.\x9a\xdb*J@'
p2295
tp2296
Rp2297
ag7
(g11
S'\xfb\xc2\xbfS\t0J@'
p2298
tp2299
Rp2300
ag7
(g11
S'\xf9c\x01\xad\xdc\x03J@'
p2301
tp2302
Rp2303
ag7
(g11
S'\xc1&d\xb3=\xf6I@'
p2304
tp2305
Rp2306
ag7
(g11
S'\x0e\x14\xd3\x9fi\xc0I@'
p2307
tp2308
Rp2309
ag7
(g11
S'X\xe7\xfc\xa2R\xf1I@'
p2310
tp2311
Rp2312
ag7
(g11
S'=W\x1a\xfbL>J@'
p2313
tp2314
Rp2315
ag7
(g11
S'\x7f\x86\x08\n{\x95I@'
p2316
tp2317
Rp2318
ag7
(g11
S'\x95\x9a\xbb\x12A<J@'
p2319
tp2320
Rp2321
ag7
(g11
S'\x13\x1c\xbcT7\x8cI@'
p2322
tp2323
Rp2324
ag7
(g11
S'\xb1\xf4N\xba\xcf\x9aI@'
p2325
tp2326
Rp2327
ag7
(g11
S'\xcdM\x99\x84\xb8\x9aI@'
p2328
tp2329
Rp2330
ag7
(g11
S'\xb9\xfe\xee\x95\xc4\xbeI@'
p2331
tp2332
Rp2333
ag7
(g11
S'\xfc$\xfb8C\xc5I@'
p2334
tp2335
Rp2336
ag7
(g11
S'4\xf9\x1b!\x9f\x08J@'
p2337
tp2338
Rp2339
ag7
(g11
S'\x13i\x88\x11"\xaeI@'
p2340
tp2341
Rp2342
ag7
(g11
S'\x81\xac\xb7\xc5d\xd4I@'
p2343
tp2344
Rp2345
ag7
(g11
S'0m\x98\xed\xcd\xccI@'
p2346
tp2347
Rp2348
ag7
(g11
S'\xd2\x14\x04\x9d\xa9\xd2I@'
p2349
tp2350
Rp2351
ag7
(g11
S'\x94o\x01\xfe\x9e=J@'
p2352
tp2353
Rp2354
ag7
(g11
S'\xbcP\xed\x02\xac\xa6I@'
p2355
tp2356
Rp2357
ag7
(g11
S'\xcaI\x1f+fRI@'
p2358
tp2359
Rp2360
ag7
(g11
S'jm2\xd2D\xb4I@'
p2361
tp2362
Rp2363
ag7
(g11
S'\xf6\xae\x1bs`\xb5I@'
p2364
tp2365
Rp2366
ag7
(g11
S'\xa3\r`\x89\x9b\xe5I@'
p2367
tp2368
Rp2369
ag7
(g11
S'\x8e?\x0c\xc5\xae\xccI@'
p2370
tp2371
Rp2372
ag7
(g11
S'\xab\xb7\xc7\xf6\xc0\xdcI@'
p2373
tp2374
Rp2375
ag7
(g11
S'\x92\xd0\x12\x8d{8I@'
p2376
tp2377
Rp2378
ag7
(g11
S'\xb08\xee\xb3\xe3\xefI@'
p2379
tp2380
Rp2381
ag7
(g11
S'\x90):\x94\xd1\xa5I@'
p2382
tp2383
Rp2384
ag7
(g11
S'\xe1\xb0\x12\x9a\xa5UI@'
p2385
tp2386
Rp2387
ag7
(g11
S'\x9a\x11\xa6\xb2\x1f>I@'
p2388
tp2389
Rp2390
ag7
(g11
S'g\xd6\x8b"\x99\xa4I@'
p2391
tp2392
Rp2393
ag7
(g11
S'\x0f2\xd2r\xaf\x1fI@'
p2394
tp2395
Rp2396
ag7
(g11
S'\xdb\xdc"~\xcbRI@'
p2397
tp2398
Rp2399
ag7
(g11
S'\x1d4\x80 \xc1\xabI@'
p2400
tp2401
Rp2402
ag7
(g11
S'\xce\x11>\x1e@\xc1I@'
p2403
tp2404
Rp2405
ag7
(g11
S'\xfb\xf2\xfe\xe7[jI@'
p2406
tp2407
Rp2408
ag7
(g11
S'\xc7\x8b\xf2\xec\xce\x14I@'
p2409
tp2410
Rp2411
ag7
(g11
S'\xe7\x12\x7f\x1a\x93\xf9I@'
p2412
tp2413
Rp2414
ag7
(g11
S'jI9\x99\xa0\xacI@'
p2415
tp2416
Rp2417
ag7
(g11
S'\xfce\xd8\x93\x19\xceI@'
p2418
tp2419
Rp2420
ag7
(g11
S'\x04`\xacK\x88\xfaH@'
p2421
tp2422
Rp2423
ag7
(g11
S'\x90\xc0\x1e\x1c\xdd\x1fI@'
p2424
tp2425
Rp2426
ag7
(g11
S'bA\x86W;_I@'
p2427
tp2428
Rp2429
ag7
(g11
S'GeU \x8e\xfeH@'
p2430
tp2431
Rp2432
ag7
(g11
S'\xdb\x0f\xe6\x99\x8f\x0bI@'
p2433
tp2434
Rp2435
ag7
(g11
S'\\Z\x83?\x8c\x12I@'
p2436
tp2437
Rp2438
ag7
(g11
S'vbO\xd0^\xedH@'
p2439
tp2440
Rp2441
ag7
(g11
S'\xa2\xb9\xb3F/8I@'
p2442
tp2443
Rp2444
ag7
(g11
S'4\x93\x04=b\x0cI@'
p2445
tp2446
Rp2447
ag7
(g11
S')I\x9f#\xf3\x10I@'
p2448
tp2449
Rp2450
ag7
(g11
S'e\xd7\x87\x93\x12\xc3H@'
p2451
tp2452
Rp2453
ag7
(g11
S'\xde}C\xc40\xd2H@'
p2454
tp2455
Rp2456
ag7
(g11
S'636*\xd5\x0fI@'
p2457
tp2458
Rp2459
ag7
(g11
S'4\xd2\xe0\x94\xee\xe9H@'
p2460
tp2461
Rp2462
ag7
(g11
S'\x9a_\xe51L\xfaH@'
p2463
tp2464
Rp2465
ag7
(g11
S'w\x1c\xc1<\xac\xe5H@'
p2466
tp2467
Rp2468
ag7
(g11
S'<s{H\x92\xe5H@'
p2469
tp2470
Rp2471
ag7
(g11
S'F\x14F\xd6\xef\xffH@'
p2472
tp2473
Rp2474
ag7
(g11
S'\xc3\xa3r\x0cm\xd3H@'
p2475
tp2476
Rp2477
ag7
(g11
S'\xdd\x13e\xb0bAI@'
p2478
tp2479
Rp2480
ag7
(g11
S'\xcf\x96%\xb4\x90\xc1H@'
p2481
tp2482
Rp2483
ag7
(g11
S'\xbb\x0e\x16"s3J@'
p2484
tp2485
Rp2486
ag7
(g11
S'\xd5\xcaR\xb4\x11\xf1I@'
p2487
tp2488
Rp2489
ag7
(g11
S'\x8aO\x01\x89~\xfbI@'
p2490
tp2491
Rp2492
ag7
(g11
S'\x06o\xbf\r\xed\x8fI@'
p2493
tp2494
Rp2495
ag7
(g11
S'\xa5\xc2\xb8\n,\x1eJ@'
p2496
tp2497
Rp2498
ag7
(g11
S'\t\x7f\xdb9\x15.J@'
p2499
tp2500
Rp2501
ag7
(g11
S'\xb4O\xff\xbc\x1d\xd7I@'
p2502
tp2503
Rp2504
ag7
(g11
S'\x80\xad.\xd3\x81\xb9I@'
p2505
tp2506
Rp2507
ag7
(g11
S'\xa9\xaaS\x8fN\nJ@'
p2508
tp2509
Rp2510
ag7
(g11
S'x\xcf\x99C\x07MI@'
p2511
tp2512
Rp2513
ag7
(g11
S'htL\x8eI\xa7I@'
p2514
tp2515
Rp2516
ag7
(g11
S'Q\xd5`\x81(0J@'
p2517
tp2518
Rp2519
ag7
(g11
S'\xed\xce\x16\xa9/xI@'
p2520
tp2521
Rp2522
ag7
(g11
S'\t\xd5~\xd1v\xe4I@'
p2523
tp2524
Rp2525
ag7
(g11
S'I\x0f\xb3\xd9\x10\xd0I@'
p2526
tp2527
Rp2528
ag7
(g11
S'\xc8\x0bT\x92\xa9eI@'
p2529
tp2530
Rp2531
ag7
(g11
S'\xab\xf3o-\xff\xa9I@'
p2532
tp2533
Rp2534
ag7
(g11
S'\x8f2\xff\x1c\xef\xe8I@'
p2535
tp2536
Rp2537
ag7
(g11
S'\x87>J\xd2\xa9dI@'
p2538
tp2539
Rp2540
ag7
(g11
S'\x1eJ\x86pQvI@'
p2541
tp2542
Rp2543
ag7
(g11
S'\x93\x86\xd4ww\xb9I@'
p2544
tp2545
Rp2546
ag7
(g11
S'\xf8\xde\xf1\x85\x9d\xccI@'
p2547
tp2548
Rp2549
ag7
(g11
S'\xae\xa7\x13\\C\xe6I@'
p2550
tp2551
Rp2552
ag7
(g11
S'\x9cB^\xf9P\x9bI@'
p2553
tp2554
Rp2555
ag7
(g11
S'\x00\xc0>k\xf3\x8dI@'
p2556
tp2557
Rp2558
ag7
(g11
S'*\x80.\xd26\xb2I@'
p2559
tp2560
Rp2561
ag7
(g11
S'Y\xbd\xa7\xa2*\x8bI@'
p2562
tp2563
Rp2564
ag7
(g11
S'\xb2\x15\x16\xf1\xe2\xc8I@'
p2565
tp2566
Rp2567
ag7
(g11
S'\x1e\xbe\xd9r\x8d\x86I@'
p2568
tp2569
Rp2570
ag7
(g11
S'\xb1er-\xf4QI@'
p2571
tp2572
Rp2573
ag7
(g11
S'\\\x89\xf8o\xcc\xa6I@'
p2574
tp2575
Rp2576
asasS'pos'
p2577
(lp2578
(dp2579
g4
(lp2580
I0
aI10
aI20
aI30
aI40
aI50
aI60
aI70
aI77
aI88
aI98
aI107
aI121
aI129
aI138
aI144
aI152
aI159
aI168
aI180
aI189
aI202
aI212
aI223
aI229
aI240
aI252
aI261
aI270
aI278
aI287
aI300
aI304
aI312
aI322
aI335
aI344
aI351
aI361
aI369
aI375
aI381
aI387
aI396
aI409
aI416
aI422
aI432
aI444
aI454
aI466
aI476
aI481
aI490
aI499
aI510
aI517
aI529
aI538
aI547
aI553
aI558
aI569
aI578
aI586
aI596
aI603
aI620
aI624
aI637
aI647
aI655
aI667
aI676
aI683
aI696
aI702
aI713
aI720
aI729
aI740
aI754
aI759
aI775
aI789
aI793
aI800
aI809
aI816
aI822
aI831
aI835
aI842
aI851
aI858
aI865
aI869
aI879
aI883
aI888
aI898
aI910
aI915
aI921
aI928
aI934
aI941
aI950
aI956
aI967
aI975
aI984
aI992
aI996
aI1001
aI1009
aI1012
aI1019
aI1027
aI1031
aI1040
aI1049
aI1059
aI1067
aI1079
aI1084
aI1090
aI1099
aI1104
aI1109
aI1114
aI1115
aI1119
aI1128
aI1131
aI1136
aI1143
aI1150
aI1155
aI1161
aI1167
aI1171
aI1178
aI1183
aI1193
aI1198
aI1201
aI1207
aI1213
aI1221
aI1229
aI1239
aI1243
aI1251
aI1255
aI1261
aI1267
aI1272
aI1275
aI1281
aI1284
aI1286
aI1292
aI1295
aI1296
aI1300
aI1307
aI1310
aI1313
aI1316
aI1323
aI1328
aI1336
aI1340
aI1345
aI1347
aI1348
aI1356
aI1361
aI1365
aI1369
aI1372
aI1382
aI1386
aI1393
aI1396
aI1399
aI1405
aI1408
aI1414
aI1416
aI1420
aI1422
aI1427
aI1429
aI1435
aI1436
aI1439
aI1440
aI1443
aI1448
aI1454
aI1457
aI1467
aI1470
aI1477
aI1480
aI1488
aI1494
aI1495
aI1504
aI1506
aI1510
aI1514
aI1520
aI1525
aI1526
aI1528
aI1533
aI1538
aI1542
aI1544
aI1548
aI1550
aI1555
aI1558
aI1560
aI1562
aI1568
aI1573
aI1580
aI1581
aI1585
aI1588
aI1591
aI1593
aI1594
aI1598
aI1600
aI1603
aI1604
aI1608
aI1609
aI1615
aI1622
aI1624
aI1626
aI1631
aI1633
aI1635
aI1637
aI1641
aI1646
aI1647
aI1649
aI1651
aI1655
aI1656
aI1660
aI1662
aI1664
aI1668
aI1669
aI1671
aI1674
aI1678
aI1682
aI1683
aI1687
aI1689
aI1693
aI1695
aI1698
aI1699
aI1702
aI1704
aI1705
aI1706
aI1710
aI1711
aI1713
aI1717
aI1718
aI1720
aI1722
aI1730
aI1732
aI1736
aI1739
aI1741
aI1742
aI1745
aI1747
aI1750
aI1751
aI1753
aI1755
aI1756
aI1758
aI1759
aI1762
aI1765
aI1767
aI1769
aI1772
aI1773
aI1774
aI1776
aI1777
aI1779
aI1780
aI1782
aI1785
aI1787
aI1789
aI1793
aI1795
aI1797
aI1798
aI1800
aI1802
aI1804
aI1807
aI1809
aI1811
aI1812
aI1815
aI1816
aI1819
aI1822
aI1823
aI1824
aI1825
aI1826
aI1827
aI1830
aI1831
aI1832
aI1833
aI1834
aI1836
aI1838
aI1840
aI1841
aI1843
aI1844
aI1845
aI1847
aI1848
aI1850
aI1851
aI1852
aI1856
aI1859
aI1860
aI1861
aI1862
aI1863
aI1865
aI1868
aI1870
aI1871
aI1873
aI1874
aI1877
aI1880
aI1883
aI1885
aI1887
aI1890
aI1891
aI1892
aI1895
aI1898
aI1900
aI1902
aI1903
aI1904
aI1906
aI1907
aI1910
aI1911
aI1913
aI1915
aI1916
aI1917
aI1918
aI1920
aI1921
aI1922
aI1923
aI1927
aI1928
aI1931
aI1932
aI1935
aI1936
aI1938
aI1939
aI1941
aI1943
aI1944
aI1948
aI1951
aI1952
aI1953
aI1954
aI1956
aI1959
aI1960
aI1961
aI1964
aI1967
aI1968
aI1972
aI1974
aI1976
aI1977
aI1978
aI1979
aI1980
aI1981
aI1983
aI1984
aI1985
aI1986
aI1987
aI1988
aI1990
aI1991
aI1995
aI1998
aI1999
aI2000
asg2577
(lp2581
I0
aI0
aI0
aI0
aI0
aI0
aI1
aI1
aI2
aI2
aI2
aI2
aI2
aI2
aI3
aI3
aI3
aI4
aI4
aI4
aI4
aI4
aI4
aI4
aI4
aI4
aI4
aI4
aI4
aI4
aI4
aI5
aI5
aI5
aI5
aI6
aI6
aI6
aI7
aI7
aI8
aI8
aI8
aI8
aI8
aI8
aI8
aI8
aI8
aI8
aI9
aI9
aI9
aI9
aI9
aI9
aI9
aI9
aI9
aI9
aI9
aI9
aI9
aI9
aI9
aI9
aI9
aI9
aI9
aI9
aI9
aI9
aI9
aI10
aI10
aI11
aI11
aI11
aI12
aI12
aI12
aI13
aI13
aI13
aI15
aI15
aI15
aI16
aI16
aI16
aI16
aI16
aI17
aI17
aI17
aI18
aI18
aI18
aI18
aI18
aI18
aI18
aI18
aI18
aI18
aI18
aI18
aI19
aI19
aI20
aI20
aI20
aI20
aI20
aI20
aI21
aI21
aI21
aI21
aI21
aI21
aI22
aI22
aI22
aI22
aI22
aI22
aI22
aI22
aI22
aI22
aI22
aI22
aI22
aI22
aI22
aI23
aI24
aI24
aI24
aI24
aI25
aI25
aI25
aI25
aI25
aI25
aI25
aI25
aI26
aI27
aI28
aI28
aI28
aI28
aI28
aI28
aI28
aI28
aI28
aI28
aI28
aI28
aI28
aI28
aI28
aI28
aI28
aI28
aI28
aI28
aI28
aI29
aI29
aI29
aI29
aI29
aI29
aI29
aI29
aI29
aI29
aI29
aI29
aI29
aI29
aI29
aI29
aI30
aI30
aI30
aI30
aI30
aI31
aI31
aI31
aI31
aI32
aI32
aI32
aI32
aI32
aI32
aI35
aI35
aI35
aI36
aI36
aI36
aI36
aI37
aI38
aI38
aI38
aI38
aI39
aI39
aI39
aI40
aI40
aI40
aI40
aI41
aI41
aI41
aI41
aI41
aI42
aI42
aI42
aI43
aI43
aI43
aI43
aI43
aI43
aI43
aI43
aI43
aI43
aI43
aI43
aI43
aI43
aI43
aI43
aI43
aI43
aI43
aI43
aI43
aI43
aI43
aI43
aI43
aI43
aI43
aI43
aI43
aI43
aI43
aI43
aI43
aI43
aI43
aI43
aI43
aI43
aI43
aI43
aI43
aI43
aI43
aI43
aI43
aI43
aI43
aI43
aI43
aI43
aI43
aI43
aI43
aI43
aI43
aI43
aI43
aI43
aI43
aI43
aI43
aI43
aI43
aI43
aI43
aI43
aI43
aI43
aI43
aI43
aI43
aI43
aI43
aI44
aI44
aI44
aI44
aI44
aI44
aI44
aI44
aI44
aI44
aI44
aI44
aI44
aI44
aI44
aI44
aI44
aI44
aI44
aI44
aI44
aI44
aI44
aI44
aI44
aI44
aI44
aI44
aI44
aI44
aI44
aI44
aI44
aI44
aI44
aI44
aI44
aI44
aI44
aI44
aI44
aI44
aI44
aI44
aI44
aI44
aI44
aI44
aI44
aI44
aI44
aI44
aI44
aI44
aI44
aI44
aI44
aI44
aI44
aI44
aI44
aI44
aI44
aI44
aI44
aI44
aI44
aI44
aI44
aI44
aI44
aI44
aI44
aI44
aI44
aI44
aI44
aI44
aI44
aI44
aI44
aI44
aI44
aI44
aI44
aI44
aI44
aI44
aI44
aI44
aI44
aI44
aI44
aI44
aI44
aI44
aI44
aI44
aI44
aI45
aI45
aI45
aI45
aI45
aI45
aI45
aI45
aI45
aI45
aI45
aI45
aI45
aI45
aI45
aI45
aI45
aI45
aI45
aI45
aI45
aI45
aI45
aI45
aI45
aI45
aI45
aI45
aI45
aI45
aI45
aI45
asas.