(dp0
S'getpool_kmeans'
p1
(dp2
S'acc'
p3
(dp4
I0
(lp5
F0.9506666666666667
aF0.9506666666666667
aF0.9548888888888889
aF0.9566666666666667
aF0.9522222222222222
aF0.9557777777777777
aF0.9546666666666667
aF0.9522222222222222
aF0.9517777777777777
aF0.9537777777777777
asI1
(lp6
F0.9604494382022472
aF0.9593258426966292
aF0.9575280898876405
aF0.9606741573033708
aF0.96
aF0.958876404494382
aF0.9593258426966292
aF0.9568539325842697
aF0.9539325842696629
aF0.9575280898876405
asI2
(lp7
F0.9661363636363637
aF0.9670454545454545
aF0.9684090909090909
aF0.9640909090909091
aF0.9670454545454545
aF0.9613636363636363
aF0.9638636363636364
aF0.9634090909090909
aF0.9625
aF0.9686363636363636
asI3
(lp8
F0.9710344827586207
aF0.9724137931034482
aF0.9747126436781609
aF0.9705747126436781
aF0.9708045977011495
aF0.9714942528735632
aF0.9694252873563218
aF0.9696551724137931
aF0.9685057471264368
aF0.972183908045977
asI4
(lp9
F0.9772093023255813
aF0.9751162790697674
aF0.9786046511627907
aF0.9758139534883721
aF0.9758139534883721
aF0.9772093023255813
aF0.9753488372093023
aF0.9774418604651163
aF0.976046511627907
aF0.9769767441860465
asI5
(lp10
F0.9825882352941177
aF0.9802352941176471
aF0.983764705882353
aF0.979764705882353
aF0.98
aF0.9807058823529412
aF0.9792941176470589
aF0.9811764705882353
aF0.9790588235294118
aF0.9807058823529412
asI6
(lp11
F0.9859523809523809
aF0.9835714285714285
aF0.9861904761904762
aF0.9835714285714285
aF0.9826190476190476
aF0.9823809523809524
aF0.9838095238095238
aF0.9835714285714285
aF0.9826190476190476
aF0.9847619047619047
asI7
(lp12
F0.9874698795180723
aF0.9855421686746988
aF0.9889156626506024
aF0.9855421686746988
aF0.9848192771084338
aF0.9855421686746988
aF0.9857831325301205
aF0.9850602409638555
aF0.9853012048192771
aF0.9872289156626506
asI8
(lp13
F0.9892682926829268
aF0.9875609756097561
aF0.9912195121951219
aF0.988780487804878
aF0.9870731707317073
aF0.9875609756097561
aF0.9882926829268293
aF0.9870731707317073
aF0.9873170731707317
aF0.9890243902439024
asI9
(lp14
F0.9903703703703703
aF0.9898765432098765
aF0.9928395061728396
aF0.9896296296296296
aF0.9891358024691358
aF0.9898765432098765
aF0.9908641975308642
aF0.9893827160493828
aF0.9888888888888889
aF0.9911111111111112
asI10
(lp15
F0.9915
aF0.99125
aF0.993
aF0.99125
aF0.9915
aF0.99075
aF0.9925
aF0.99125
aF0.99
aF0.992
assS'F_M'
p16
(dp17
I0
(lp18
cnumpy.core.multiarray
scalar
p19
(cnumpy
dtype
p20
(S'f8'
p21
I0
I1
tp22
Rp23
(I3
S'<'
p24
NNNI-1
I-1
I0
tp25
bS'\x98!\xc0\xfa\xd10\xdf?'
p26
tp27
Rp28
ag19
(g23
S'\x98!\xc0\xfa\xd10\xdf?'
p29
tp30
Rp31
ag19
(g23
S'&A \xb1\xc2\xa1\xe5?'
p32
tp33
Rp34
ag19
(g23
S'\xad\x0e\xbbF\xc1\xba\xe5?'
p35
tp36
Rp37
ag19
(g23
S'\x9f\x07\x82\xac\x08J\xe5?'
p38
tp39
Rp40
ag19
(g23
S'M\x92\xcdy@w\xe5?'
p41
tp42
Rp43
ag19
(g23
S'\xb4\xc7\x175\xb3\xc0\xe5?'
p44
tp45
Rp46
ag19
(g23
S'\x13\xac?G\x837\xdf?'
p47
tp48
Rp49
ag19
(g23
S'\x0f\xca\xe0\x03OY\xe5?'
p50
tp51
Rp52
ag19
(g23
S'\x95P~\xda\xf3\x9d\xe5?'
p53
tp54
Rp55
asI1
(lp56
g19
(g23
S'\xdc\xbc\xad\x03\x87\x16\xe6?'
p57
tp58
Rp59
ag19
(g23
S'n\x14\x07X\x92\xfa\xe5?'
p60
tp61
Rp62
ag19
(g23
S'v_&\x0b\xb2\xac\xe5?'
p63
tp64
Rp65
ag19
(g23
S'\xd7\x969ffG\xe6?'
p66
tp67
Rp68
ag19
(g23
S'\xb7\xfbX\x1a\tI\xe5?'
p69
tp70
Rp71
ag19
(g23
S'wG\x86xl(\xe6?'
p72
tp73
Rp74
ag19
(g23
S'\x1f\x88y\xa9}\xeb\xe5?'
p75
tp76
Rp77
ag19
(g23
S'LUo\xcf\r\x99\xe5?'
p78
tp79
Rp80
ag19
(g23
S'^\xe86\xad\xddn\xe5?'
p81
tp82
Rp83
ag19
(g23
S' "\xcab\x0c\x9a\xe5?'
p84
tp85
Rp86
asI2
(lp87
g19
(g23
S'\xcc\xe62\xf6\x8fo\xe6?'
p88
tp89
Rp90
ag19
(g23
S'fe\x99\xc0P\xb0\xe6?'
p91
tp92
Rp93
ag19
(g23
S'\x13.\xbe\x82\xce\xf5\xe6?'
p94
tp95
Rp96
ag19
(g23
S'n\x81\x06#\xe6G\xe6?'
p97
tp98
Rp99
ag19
(g23
S'bH\x1e\xa2\x13\x10\xe7?'
p100
tp101
Rp102
ag19
(g23
S'\xc0\xce\x9f\x01\x9c\x07\xe6?'
p103
tp104
Rp105
ag19
(g23
S'\xca\xe6.\x7f\xdc\x91\xe6?'
p106
tp107
Rp108
ag19
(g23
S'(a\xf3\x08\x87\x13\xe6?'
p109
tp110
Rp111
ag19
(g23
S'\nBUq\x05p\xe6?'
p112
tp113
Rp114
ag19
(g23
S'=#Bm]v\xe7?'
p115
tp116
Rp117
asI3
(lp118
g19
(g23
S'\xf7\xf4\xf6\xaf&\x9e\xe6?'
p119
tp120
Rp121
ag19
(g23
S'\x8eU3:\x8fu\xe7?'
p122
tp123
Rp124
ag19
(g23
S'\xa7<>\x00i\xec\xe7?'
p125
tp126
Rp127
ag19
(g23
S'dl\x04\x8f\xe7\n\xe7?'
p128
tp129
Rp130
ag19
(g23
S'a\xc4\x08\xfcb\x07\xe7?'
p131
tp132
Rp133
ag19
(g23
S'\x82d\x06FN\x9d\xe7?'
p134
tp135
Rp136
ag19
(g23
S'\xa7@\xa1\x97\xa3(\xe7?'
p137
tp138
Rp139
ag19
(g23
S'C\xb6&dL\x0f\xe7?'
p140
tp141
Rp142
ag19
(g23
S'\x94\xc7\x9d\xe0\xdeC\xe7?'
p143
tp144
Rp145
ag19
(g23
S'@\xa8\xff\xbds\x9f\xe7?'
p146
tp147
Rp148
asI4
(lp149
g19
(g23
S'\xddc\xbc}\xadV\xe7?'
p150
tp151
Rp152
ag19
(g23
S"\xbe\xc7\xfbw\xc5'\xe7?"
p153
tp154
Rp155
ag19
(g23
S'\xed\xb9\xec\xb9|\xf9\xe7?'
p156
tp157
Rp158
ag19
(g23
S'\x0f\x99\xfa#\xc7K\xe7?'
p159
tp160
Rp161
ag19
(g23
S'Jm\xf6Jj\x80\xe7?'
p162
tp163
Rp164
ag19
(g23
S'l\xd3\xfcP\xbf]\xe8?'
p165
tp166
Rp167
ag19
(g23
S'\xd4+\xbe#\xaa\xf7\xe7?'
p168
tp169
Rp170
ag19
(g23
S'\t\x1b\xa0u\x05\x12\xe8?'
p171
tp172
Rp173
ag19
(g23
S'\xc4\xdd\n\xdd\x00\x10\xe8?'
p174
tp175
Rp176
ag19
(g23
S'\x10\xf8f\xb4zW\xe8?'
p177
tp178
Rp179
asI5
(lp180
g19
(g23
S'\xe9+.P7.\xe8?'
p181
tp182
Rp183
ag19
(g23
S'ci\xa4y\x12Q\xe7?'
p184
tp185
Rp186
ag19
(g23
S'\x17#g\xbc\xf4\xe3\xe8?'
p187
tp188
Rp189
ag19
(g23
S'C!\xf8\xab=\x9e\xe7?'
p190
tp191
Rp192
ag19
(g23
S'U\xcdY\x86R[\xe7?'
p193
tp194
Rp195
ag19
(g23
S'\xebn\x0e\xd3\xb0\x9a\xe8?'
p196
tp197
Rp198
ag19
(g23
S'?W\x88\x8b\xb5@\xe8?'
p199
tp200
Rp201
ag19
(g23
S'\xe58<Y\xefK\xe8?'
p202
tp203
Rp204
ag19
(g23
S'\xc6(\xed\xcc\xe9G\xe8?'
p205
tp206
Rp207
ag19
(g23
S'r\xaf#66d\xe8?'
p208
tp209
Rp210
asI6
(lp211
g19
(g23
S'\xbc\xe3\\\x08\x1d\x96\xe8?'
p212
tp213
Rp214
ag19
(g23
S'-9\xee\xc9S\xea\xe7?'
p215
tp216
Rp217
ag19
(g23
S'\x8f\xa2Y\xb6\x9e\x10\xe9?'
p218
tp219
Rp220
ag19
(g23
S'\xc0q\xff\xe21,\xe8?'
p221
tp222
Rp223
ag19
(g23
S'\x97\xd4\xe8\x08,\xba\xe7?'
p224
tp225
Rp226
ag19
(g23
S'}\xc0\x00\x14\xa2\x97\xe8?'
p227
tp228
Rp229
ag19
(g23
S'\x88\x0e\xcb%\xf8\xfb\xe8?'
p230
tp231
Rp232
ag19
(g23
S'\xc2\xbd\xb2\xe4\x01(\xe8?'
p233
tp234
Rp235
ag19
(g23
S"\xact\xf1\xce'\x88\xe8?"
p236
tp237
Rp238
ag19
(g23
S'pw\xe7\x82\x04\xb7\xe8?'
p239
tp240
Rp241
asI7
(lp242
g19
(g23
S'\xcd\x14\xb7|v\xf1\xe7?'
p243
tp244
Rp245
ag19
(g23
S'!\x9b\xf3\xca\xe39\xe8?'
p246
tp247
Rp248
ag19
(g23
S'\x96\x98U\r\xa8u\xe9?'
p249
tp250
Rp251
ag19
(g23
S'\x90 \xcc\x08\xe0\x00\xe8?'
p252
tp253
Rp254
ag19
(g23
S'5\x18\x15G\x95\x93\xe7?'
p255
tp256
Rp257
ag19
(g23
S'\xa2R9\x8b\x99\x96\xe8?'
p258
tp259
Rp260
ag19
(g23
S'\xbe^GL\xd9Y\xe9?'
p261
tp262
Rp263
ag19
(g23
S'9\x99\xc8\x9bJ-\xe8?'
p264
tp265
Rp266
ag19
(g23
S'\xae\x8b\xd5\xaf\xb9\xdf\xe8?'
p267
tp268
Rp269
ag19
(g23
S'\x06\x03NY\xea\x1f\xe9?'
p270
tp271
Rp272
asI8
(lp273
g19
(g23
S'\x8d\xb3I\x9f\xe2 \xe8?'
p274
tp275
Rp276
ag19
(g23
S'\xdb\xdd{\x06!T\xe8?'
p277
tp278
Rp279
ag19
(g23
S'\xc4(9\xa6\x13\x05\xea?'
p280
tp281
Rp282
ag19
(g23
S'{\xbc\x94\x9d\xc7Y\xe8?'
p283
tp284
Rp285
ag19
(g23
S'\x04!\x0f\xdf\xaa\x9b\xe7?'
p286
tp287
Rp288
ag19
(g23
S'\xfa\xcd{(t\xde\xe8?'
p289
tp290
Rp291
ag19
(g23
S'\xe5\x1f\xea0CD\xe9?'
p292
tp293
Rp294
ag19
(g23
S'e4\x8ej\xce\x94\xe8?'
p295
tp296
Rp297
ag19
(g23
S"L\xd1H'2\xf1\xe8?"
p298
tp299
Rp300
ag19
(g23
S'\x13\x01]\xfd\x92P\xe9?'
p301
tp302
Rp303
asI9
(lp304
g19
(g23
S']\xe2\xea\xbf\xd7\x01\xe8?'
p305
tp306
Rp307
ag19
(g23
S'y\xf9\x10X*\xef\xe8?'
p308
tp309
Rp310
ag19
(g23
S'\xf0*\x1a)N\x12\xea?'
p311
tp312
Rp313
ag19
(g23
S'\x0bv\x97\xf79\x95\xe8?'
p314
tp315
Rp316
ag19
(g23
S'\xc1|\x04"\x19\x9b\xe7?'
p317
tp318
Rp319
ag19
(g23
S'\x80\xb3\xa7\xf6\x1fL\xe9?'
p320
tp321
Rp322
ag19
(g23
S'\xa1\xa0\x03\xe8\x03m\xe9?'
p323
tp324
Rp325
ag19
(g23
S'\x80\xeeE\xca\x88\xfd\xe8?'
p326
tp327
Rp328
ag19
(g23
S'k\x06\xfe\xc4R\xeb\xe8?'
p329
tp330
Rp331
ag19
(g23
S'\x98\x80M9p\xc7\xe9?'
p332
tp333
Rp334
asI10
(lp335
g19
(g23
S'\xe9\x04\x17\xe3\xbe\x13\xe8?'
p336
tp337
Rp338
ag19
(g23
S"\xa7'\x98,\x17T\xe9?"
p339
tp340
Rp341
ag19
(g23
S'\xdb>q\xf2,\x03\xea?'
p342
tp343
Rp344
ag19
(g23
S'O\xe7\xca\xc6i\xe3\xe8?'
p345
tp346
Rp347
ag19
(g23
S'\xf9E@m\x8c*\xe8?'
p348
tp349
Rp350
ag19
(g23
S'\x0fb#\x0eo\x91\xe9?'
p351
tp352
Rp353
ag19
(g23
S' \xe0H\xba\xa5\xd5\xe9?'
p354
tp355
Rp356
ag19
(g23
S']\xa45i\x8bf\xe9?'
p357
tp358
Rp359
ag19
(g23
S'5\x96v\xf2|8\xe9?'
p360
tp361
Rp362
ag19
(g23
S' ^\xfd1T\xd0\xe9?'
p363
tp364
Rp365
assS'F_pos'
p366
(dp367
I0
(lp368
I0
aI0
aF0.06451612903225806
aF0.1702127659574468
aF0.0182648401826484
aF0.11555555555555556
aF0.08108108108108109
aI0
aF0.026905829596412554
aF0.06306306306306306
asI1
(lp369
F0.15384615384615383
aF0.14218009478672988
aF0.0689655172413793
aF0.19354838709677422
aF0.15238095238095237
aF0.13270142180094788
aF0.15813953488372093
aF0.05882352941176471
aF0.037558685446009384
aF0.1042654028436019
asI2
(lp370
F0.22797927461139897
aF0.2857142857142857
aF0.3015075376884422
aF0.22549019607843135
aF0.2995169082125604
aF0.11458333333333333
aF0.22439024390243903
aF0.20689655172413796
aF0.21052631578947367
aF0.3168316831683168
asI3
(lp371
F0.25000000000000006
aF0.3181818181818181
aF0.4021739130434782
aF0.3118279569892473
aF0.27428571428571424
aF0.33333333333333337
aF0.3108808290155441
aF0.2903225806451613
aF0.2827225130890052
aF0.34594594594594597
asI4
(lp372
F0.3098591549295775
aF0.27210884353741494
aF0.4390243902439025
aF0.3417721518987342
aF0.3246753246753247
aF0.4096385542168675
aF0.3908045977011494
aF0.4260355029585799
aF0.3905325443786982
aF0.40718562874251496
asI5
(lp373
F0.3620689655172414
aF0.3114754098360656
aF0.5035971223021583
aF0.37681159420289856
aF0.33070866141732286
aF0.42253521126760574
aF0.42105263157894735
aF0.4444444444444445
aF0.40268456375838924
aF0.41428571428571426
asI6
(lp374
F0.4040404040404041
aF0.35514018691588783
aF0.5166666666666666
aF0.41025641025641024
aF0.35398230088495575
aF0.421875
aF0.46031746031746024
aF0.43902439024390244
aF0.41600000000000004
aF0.4482758620689656
asI7
(lp375
F0.33333333333333337
aF0.3877551020408163
aF0.5306122448979592
aF0.39999999999999997
aF0.32258064516129037
aF0.423076923076923
aF0.49572649572649563
aF0.42592592592592593
aF0.45045045045045046
aF0.47524752475247517
asI8
(lp376
F0.35294117647058826
aF0.39999999999999997
aF0.5714285714285715
aF0.43902439024390244
aF0.32911392405063294
aF0.45161290322580644
aF0.4893617021276595
aF0.45360824742268036
aF0.45833333333333326
aF0.4943820224719101
asI9
(lp377
F0.3389830508474576
aF0.4383561643835616
aF0.5797101449275361
aF0.46153846153846156
aF0.3333333333333333
aF0.4938271604938272
aF0.5066666666666667
aF0.4941176470588235
aF0.4578313253012048
aF0.5384615384615384
asI10
(lp378
F0.3461538461538462
aF0.47761194029850745
aF0.5757575757575758
aF0.49275362318840576
aF0.3928571428571429
aF0.5194805194805194
aF0.5454545454545454
aF0.5333333333333333
aF0.4871794871794871
aF0.5428571428571428
assS'F_u'
p379
(dp380
I0
(lp381
F0.9266238323080428
aF0.9266238323080428
aF0.9559068938638972
aF0.9540833767512714
aF0.9533627201047921
aF0.9538366453667829
aF0.9556951722012635
aF0.9289179788781381
aF0.9529398242779229
aF0.9548464901572654
asI1
(lp382
F0.960071046869909
aF0.9588850870801677
aF0.9584305910270218
aF0.9597533697730845
aF0.9562281828485077
aF0.9597238984675808
aF0.9580340748047025
aF0.9577850738431076
aF0.9549934612003941
aF0.9566664447680866
asI2
(lp383
F0.9647265952398777
aF0.9649312150939084
aF0.9667621545585761
aF0.9621620797276494
aF0.9657674367279461
aF0.9621113093646748
aF0.9630859964868221
aF0.9612463505817281
aF0.9616561201540046
aF0.9682147847140851
asI3
(lp384
F0.9697006908912483
aF0.9718888184816019
aF0.9734111336043809
aF0.9689639859042599
aF0.9701252947689569
aF0.9710479003794591
aF0.9681627504967567
aF0.9686383025496832
aF0.968439835140675
aF0.9714117666179407
asI4
(lp385
F0.9765433895740431
aF0.9748372544857319
aF0.976943195194072
aF0.9743574702914316
aF0.9752298452527045
aF0.9768480176971533
aF0.9744211636589734
aF0.9760728677254412
aF0.9753706399798633
aF0.9766142072107874
asI5
(lp386
F0.9827405491813992
aF0.9795209087444283
aF0.9827806277155305
aF0.9784925915051155
aF0.9790175916487254
aF0.9805829568082973
aF0.9784352233036918
aF0.9800525776053995
aF0.9786399032486823
aF0.98028767649205
asI6
(lp387
F0.9860515108798196
aF0.9833023016373746
aF0.9853701665908634
aF0.9828561952107733
aF0.9820115107135409
aF0.9822247845649944
aF0.9836738422013889
aF0.9824389517044352
aF0.9824518034850901
aF0.984357684668616
asI7
(lp388
F0.9875486218806742
aF0.985292535752534
aF0.9884671995367378
aF0.9847828300892004
aF0.9844700391416135
aF0.9853382029293637
aF0.9856508771001227
aF0.9841871353692357
aF0.9851311946636137
aF0.9870605627522789
asI8
(lp389
F0.9893260431179384
aF0.9873021240916752
aF0.9909518205234193
aF0.9881346255094706
aF0.9867079366605584
aF0.9873625835639527
aF0.9881235997742019
aF0.9864553070376794
aF0.9871282012972402
aF0.988852958277691
asI9
(lp390
F0.9904168478370741
aF0.9899279859662115
aF0.9925795430222362
aF0.9890373761948776
aF0.9887587762353494
aF0.9896950346243811
aF0.9906867157570703
aF0.9888568330391044
aF0.9886813736118557
aF0.990956763303961
asI10
(lp391
F0.9915362051424472
aF0.9912884334997292
aF0.9927338172960118
aF0.9907351284347147
aF0.9911996750237843
aF0.990581220728913
aF0.9923412601955092
aF0.990806142968245
aF0.9898090083869789
aF0.991841683280431
asssS'getpool_kmeans_iter'
p392
(dp393
g3
(dp394
I0
(lp395
F0.9515555555555556
aF0.9517777777777777
aF0.9531111111111111
aF0.9508888888888889
aF0.9537777777777777
aF0.9504444444444444
aF0.9504444444444444
aF0.9513333333333334
aF0.952
aF0.9511111111111111
asI1
(lp396
F0.9568539325842697
aF0.9631460674157304
aF0.961123595505618
aF0.96
aF0.9615730337078652
aF0.9564044943820225
aF0.957752808988764
aF0.9582022471910112
aF0.961123595505618
aF0.9546067415730337
asI2
(lp397
F0.9613636363636363
aF0.9668181818181818
aF0.9695454545454546
aF0.9670454545454545
aF0.9656818181818182
aF0.9636363636363636
aF0.9638636363636364
aF0.9672727272727273
aF0.9681818181818181
aF0.9661363636363637
asI3
(lp398
F0.9691954022988506
aF0.9726436781609196
aF0.9726436781609196
aF0.9737931034482759
aF0.9735632183908046
aF0.9717241379310345
aF0.9712643678160919
aF0.9726436781609196
aF0.9724137931034482
aF0.9705747126436781
asI4
(lp399
F0.9762790697674418
aF0.9786046511627907
aF0.978139534883721
aF0.9767441860465116
aF0.9774418604651163
aF0.9744186046511628
aF0.9730232558139534
aF0.9765116279069768
aF0.9755813953488373
aF0.9758139534883721
asI5
(lp400
F0.9807058823529412
aF0.9807058823529412
aF0.9816470588235294
aF0.9811764705882353
aF0.9807058823529412
aF0.98
aF0.9788235294117648
aF0.9814117647058823
aF0.9792941176470589
aF0.9783529411764705
asI6
(lp401
F0.9838095238095238
aF0.9847619047619047
aF0.9835714285714285
aF0.9830952380952381
aF0.9840476190476191
aF0.9814285714285714
aF0.9830952380952381
aF0.9840476190476191
aF0.9828571428571429
aF0.9823809523809524
asI7
(lp402
F0.9860240963855421
aF0.9869879518072289
aF0.9874698795180723
aF0.9857831325301205
aF0.9865060240963855
aF0.9862650602409638
aF0.9853012048192771
aF0.9853012048192771
aF0.9867469879518073
aF0.9855421686746988
asI8
(lp403
F0.9878048780487805
aF0.9880487804878049
aF0.99
aF0.9875609756097561
aF0.988780487804878
aF0.9885365853658536
aF0.9865853658536585
aF0.9873170731707317
aF0.9880487804878049
aF0.9875609756097561
asI9
(lp404
F0.9898765432098765
aF0.9893827160493828
aF0.9906172839506173
aF0.9888888888888889
aF0.9916049382716049
aF0.9891358024691358
aF0.9888888888888889
aF0.9898765432098765
aF0.9896296296296296
aF0.9898765432098765
asI10
(lp405
F0.99175
aF0.991
aF0.9915
aF0.9905
aF0.99375
aF0.991
aF0.9905
aF0.99125
aF0.9915
aF0.99125
assg16
(dp406
I0
(lp407
g19
(g23
S'i\xc0\x1d\xaa\xde\x16\xe5?'
p408
tp409
Rp410
ag19
(g23
S'\x90\x84\x04\x0b\x9a5\xdf?'
p411
tp412
Rp413
ag19
(g23
S'4\xf6\xf1A\xf1[\xe5?'
p414
tp415
Rp416
ag19
(g23
S'Z\x00\\\xe7\xc61\xdf?'
p417
tp418
Rp419
ag19
(g23
S'\x9c\xf8\xe1F\xc2m\xe5?'
p420
tp421
Rp422
ag19
(g23
S'\x83\xaa\xda\xff\xdc/\xdf?'
p423
tp424
Rp425
ag19
(g23
S'\x9b\xd9\xba\xacj7\xe5?'
p426
tp427
Rp428
ag19
(g23
S'\x0fbK@\x8c8\xe5?'
p429
tp430
Rp431
ag19
(g23
S'\xef\xaa\xc8+g9\xe5?'
p432
tp433
Rp434
ag19
(g23
S'\x8dg_\x1b\xd7\xcb\xe4?'
p435
tp436
Rp437
asI1
(lp438
g19
(g23
S'2\xab\xa8\x97\xff\xac\xe5?'
p439
tp440
Rp441
ag19
(g23
S'{\x91\xc9\xb3\x03\x99\xe6?'
p442
tp443
Rp444
ag19
(g23
S'N\xba\x0f\xd6\xd9T\xe6?'
p445
tp446
Rp447
ag19
(g23
S'D~*AD<\xe5?'
p448
tp449
Rp450
ag19
(g23
S'\xa4\x02{\xbc\xd1X\xe6?'
p451
tp452
Rp453
ag19
(g23
S'\xb6\xd3\xa3\x9b3c\xe5?'
p454
tp455
Rp456
ag19
(g23
S'\xcc\x9ew\xe5 \x03\xe6?'
p457
tp458
Rp459
ag19
(g23
S'\xd6\xa4\xa2\xf8nJ\xe5?'
p460
tp461
Rp462
ag19
(g23
S'\xa4B\xab\xe7k\xcf\xe5?'
p463
tp464
Rp465
ag19
(g23
S'Ec\xb9&:\x81\xe5?'
p466
tp467
Rp468
asI2
(lp469
g19
(g23
S'\xbc\x03\xfb\x99;\x83\xe5?'
p470
tp471
Rp472
ag19
(g23
S'ey!\x19\xa2\x9f\xe6?'
p473
tp474
Rp475
ag19
(g23
S'#\xca\x17=\x8d^\xe7?'
p476
tp477
Rp478
ag19
(g23
S'Zaj\x8a\xcd\xb5\xe5?'
p479
tp480
Rp481
ag19
(g23
S'\xb8j\\\xd0|\x84\xe6?'
p482
tp483
Rp484
ag19
(g23
S"\xa0\xf5\xc1\xec'6\xe6?"
p485
tp486
Rp487
ag19
(g23
S'l\xd1x\xf9\x9b\x92\xe6?'
p488
tp489
Rp490
ag19
(g23
S'\x9d@\x1d\x86\x0e\x04\xe7?'
p491
tp492
Rp493
ag19
(g23
S'\x90tb\xd9\x91S\xe7?'
p494
tp495
Rp496
ag19
(g23
S"'^i\x9f\xdf\r\xe7?"
p497
tp498
Rp499
asI3
(lp500
g19
(g23
S'2$\x1dS\xeb\x16\xe7?'
p501
tp502
Rp503
ag19
(g23
S']9>\xfb\xb1\xbb\xe7?'
p504
tp505
Rp506
ag19
(g23
S'\xa3\xd21\x01\x06\x1b\xe7?'
p507
tp508
Rp509
ag19
(g23
S'\xbf\x8cnNR;\xe6?'
p510
tp511
Rp512
ag19
(g23
S'\xbe}\xd67\x06\x8c\xe7?'
p513
tp514
Rp515
ag19
(g23
S'\x94\t\xd1\xdc\xbc\x8f\xe7?'
p516
tp517
Rp518
ag19
(g23
S'\x9b\x05(\xc1K\x9b\xe7?'
p519
tp520
Rp521
ag19
(g23
S'\x14\xb7\x0c\x1a\t\xbc\xe7?'
p522
tp523
Rp524
ag19
(g23
S'<\x93\xc3g"\xb4\xe7?'
p525
tp526
Rp527
ag19
(g23
S'\x15\xd8\xa2\xfeZg\xe7?'
p528
tp529
Rp530
asI4
(lp531
g19
(g23
S'"\xa9\xef"V\xcd\xe7?'
p532
tp533
Rp534
ag19
(g23
S'\xed^wX\xd6O\xe8?'
p535
tp536
Rp537
ag19
(g23
S'\x8a\x00\xe6\xbd\x9b\xe5\xe7?'
p538
tp539
Rp540
ag19
(g23
S"\xde'\xaf<\x15\x91\xe6?"
p541
tp542
Rp543
ag19
(g23
S'\xadL%\x97\xe5[\xe7?'
p544
tp545
Rp546
ag19
(g23
S'\xeaK\x03j\xddr\xe7?'
p547
tp548
Rp549
ag19
(g23
S'R(\xcc\x97:F\xe7?'
p550
tp551
Rp552
ag19
(g23
S'\xb28o\xfb\xc3U\xe8?'
p553
tp554
Rp555
ag19
(g23
S'3(|\x14w\xf8\xe7?'
p556
tp557
Rp558
ag19
(g23
S"\x021'\xfd\xea\xff\xe7?"
p559
tp560
Rp561
asI5
(lp562
g19
(g23
S'V=\xb8\x90L\x1d\xe8?'
p563
tp564
Rp565
ag19
(g23
S'\xd7x\xd5\x1a\xceD\xe8?'
p566
tp567
Rp568
ag19
(g23
S'\x98`w\xea\xe1\x15\xe8?'
p569
tp570
Rp571
ag19
(g23
S"%'3\xde\x0fh\xe6?"
p572
tp573
Rp574
ag19
(g23
S'\x9e\xdfz\xf8\x9b\xc5\xe7?'
p575
tp576
Rp577
ag19
(g23
S'\xae\x92_L\x88\x87\xe8?'
p578
tp579
Rp580
ag19
(g23
S'\x9e\x9b\x8b-v\x16\xe8?'
p581
tp582
Rp583
ag19
(g23
S'\x90\xd8\xec0+d\xe8?'
p584
tp585
Rp586
ag19
(g23
S'~\xfbsv\xa6V\xe8?'
p587
tp588
Rp589
ag19
(g23
S'\xf0\x15v\xe6\xa1\xf1\xe7?'
p590
tp591
Rp592
asI6
(lp593
g19
(g23
S'a\xab\xf1D\x80u\xe8?'
p594
tp595
Rp596
ag19
(g23
S'pw\xe7\x82\x04\xb7\xe8?'
p597
tp598
Rp599
ag19
(g23
S'\x89nv\x1c\xd4%\xe8?'
p600
tp601
Rp602
ag19
(g23
S'\x8al\x1d\xad\xb63\xe6?'
p603
tp604
Rp605
ag19
(g23
S'^\xdd\xe3\x1b\xf86\xe8?'
p606
tp607
Rp608
ag19
(g23
S',\t\xc3\xc5R2\xe8?'
p609
tp610
Rp611
ag19
(g23
S'"pN\x13S\xe3\xe8?'
p612
tp613
Rp614
ag19
(g23
S'r\xdf\xe8\x96P\x8a\xe8?'
p615
tp616
Rp617
ag19
(g23
S'\xd4\x04e__\xfa\xe8?'
p618
tp619
Rp620
ag19
(g23
S'\xa7\x9e\x10(\xfb\n\xe8?'
p621
tp622
Rp623
asI7
(lp624
g19
(g23
S'k\xf6\xcf\xcc\xc1\xab\xe8?'
p625
tp626
Rp627
ag19
(g23
S'e\x7f\x9d\xf5g/\xe9?'
p628
tp629
Rp630
ag19
(g23
S'_\x99S%\xd7\xb1\xe8?'
p631
tp632
Rp633
ag19
(g23
S'\x84k\xfd\xd6Y\xf6\xe5?'
p634
tp635
Rp636
ag19
(g23
S'\x96\x02L\xd0z\xb5\xe8?'
p637
tp638
Rp639
ag19
(g23
S'\x99\xcd\xcc\xc9o\xc4\xe8?'
p640
tp641
Rp642
ag19
(g23
S'Q\xdf\xd2<\xda\x03\xe9?'
p643
tp644
Rp645
ag19
(g23
S'\x17\xda\xb1G^\x8c\xe8?'
p646
tp647
Rp648
ag19
(g23
S'\xfd\xfc\\\n=\xce\xe9?'
p649
tp650
Rp651
ag19
(g23
S'\xbe\x80|\xb9nl\xe8?'
p652
tp653
Rp654
asI8
(lp655
g19
(g23
S'\xd5\x1d\xafDk\xa8\xe8?'
p656
tp657
Rp658
ag19
(g23
S'2+.\xf7N\xf8\xe8?'
p659
tp660
Rp661
ag19
(g23
S'.\x83\xcf\xf5\xb58\xe9?'
p662
tp663
Rp664
ag19
(g23
S'\xf0Hu\xeek#\xe6?'
p665
tp666
Rp667
ag19
(g23
S'\xd4\xed\xf9\xb3\xd3\x10\xe9?'
p668
tp669
Rp670
ag19
(g23
S'C]j~i+\xe9?'
p671
tp672
Rp673
ag19
(g23
S'\x15R!y\x1d\xdc\xe8?'
p674
tp675
Rp676
ag19
(g23
S'2\xef]\x02\x02\xd2\xe8?'
p677
tp678
Rp679
ag19
(g23
S'9\x8di\x05Vp\xe9?'
p680
tp681
Rp682
ag19
(g23
S'*\xeb\xb4C|\xd4\xe8?'
p683
tp684
Rp685
asI9
(lp686
g19
(g23
S'\tCJFC(\xe9?'
p687
tp688
Rp689
ag19
(g23
S'\x10\xf9\xfb\x0fbN\xe9?'
p690
tp691
Rp692
ag19
(g23
S'p\x99\xb2\xc8wE\xe9?'
p693
tp694
Rp695
ag19
(g23
S'\xc4\xea\xd3\xa6\xefM\xe6?'
p696
tp697
Rp698
ag19
(g23
S'w\x97\xc5\xf7\xe6\xd7\xe9?'
p699
tp700
Rp701
ag19
(g23
S'o\x97\xe1\x14\xb1\x14\xe9?'
p702
tp703
Rp704
ag19
(g23
S'\xb4w\x9c\xcb\x91\x05\xe9?'
p705
tp706
Rp707
ag19
(g23
S'\tCJFC(\xe9?'
p708
tp709
Rp710
ag19
(g23
S'\xbc\xbf#<s\x9e\xe9?'
p711
tp712
Rp713
ag19
(g23
S'J`\xe9&\xf1\xf9\xe8?'
p714
tp715
Rp716
asI10
(lp717
g19
(g23
S'^\x95\xbf\x7f\x10\xbb\xe9?'
p718
tp719
Rp720
ag19
(g23
S'\xe0\xc3\xc4Er\x7f\xe9?'
p721
tp722
Rp723
ag19
(g23
S'\x1b#\xaf{`\x12\xe9?'
p724
tp725
Rp726
ag19
(g23
S'\xe7\x87\xef\xe4t\x8d\xe6?'
p727
tp728
Rp729
ag19
(g23
S'\xa7\xd1\xee\x1a\xee\x85\xea?'
p730
tp731
Rp732
ag19
(g23
S'\xbaG\xd3\xadF\xc7\xe9?'
p733
tp734
Rp735
ag19
(g23
S'\x9a\x8e\x044\xfbx\xe9?'
p736
tp737
Rp738
ag19
(g23
S'D\xc3\xfc\x87\xa8\x92\xe9?'
p739
tp740
Rp741
ag19
(g23
S'\x82\xe5\xe0\xc1\xdc0\xea?'
p742
tp743
Rp744
ag19
(g23
S'D\xc3\xfc\x87\xa8\x92\xe9?'
p745
tp746
Rp747
assg366
(dp748
I0
(lp749
F0.0603448275862069
aI0
aF0.027649769585253458
aI0
aF0.037037037037037035
aI0
aF0.008888888888888887
aF0.009049773755656108
aF0.009174311926605503
aF0.043478260869565216
asI1
(lp750
F0.1111111111111111
aF0.2407407407407407
aF0.18009478672985782
aF0.10101010101010101
aF0.18181818181818182
aF0.08490566037735849
aF0.14545454545454548
aF0.12264150943396226
aF0.26382978723404255
aF0.04716981132075471
asI2
(lp751
F0.15841584158415845
aF0.26999999999999996
aF0.33
aF0.18079096045197743
aF0.20105820105820107
aF0.23076923076923075
aF0.23923444976076555
aF0.3142857142857142
aF0.36936936936936937
aF0.2870813397129186
asI3
(lp752
F0.27956989247311825
aF0.3567567567567568
aF0.32
aF0.2875
aF0.32748538011695905
aF0.38805970149253727
aF0.37810945273631846
aF0.383419689119171
aF0.3877551020408163
aF0.3118279569892473
asI4
(lp753
F0.35443037974683544
aF0.425
aF0.36486486486486486
aF0.25373134328358204
aF0.31205673758865243
aF0.35294117647058826
aF0.32558139534883723
aF0.41618497109826585
aF0.39999999999999997
aF0.37349397590361444
asI5
(lp754
F0.3880597014925373
aF0.4142857142857143
aF0.3709677419354839
aF0.19999999999999998
aF0.33870967741935487
aF0.43708609271523174
aF0.4303797468354431
aF0.4148148148148148
aF0.42857142857142855
aF0.36986301369863017
asI6
(lp755
F0.423728813559322
aF0.4482758620689656
aF0.3783783783783784
aF0.1839080459770115
aF0.38532110091743116
aF0.40909090909090906
aF0.4892086330935252
aF0.4173913043478261
aF0.47058823529411764
aF0.38333333333333336
asI7
(lp756
F0.4313725490196078
aF0.4807692307692308
aF0.4347826086956522
aF0.16901408450704225
aF0.4166666666666667
aF0.4672897196261682
aF0.5040650406504066
aF0.4190476190476191
aF0.5378151260504201
aF0.4230769230769231
asI8
(lp757
F0.43181818181818177
aF0.46153846153846156
aF0.4675324675324675
aF0.19047619047619047
aF0.4523809523809524
aF0.49462365591397855
aF0.47619047619047616
aF0.4468085106382979
aF0.5050505050505051
aF0.46315789473684216
asI9
(lp758
F0.48101265822784806
aF0.49411764705882355
aF0.4722222222222222
aF0.21052631578947367
aF0.5277777777777778
aF0.48837209302325574
aF0.4827586206896551
aF0.48101265822784806
aF0.5227272727272727
aF0.48101265822784806
asI10
(lp759
F0.5352112676056339
aF0.5135135135135135
aF0.45161290322580644
aF0.24
aF0.5901639344262295
aF0.5384615384615384
aF0.525
aF0.5205479452054794
aF0.575
aF0.5205479452054794
assg379
(dp760
I0
(lp761
F0.9497113828288236
aF0.9282623755487242
aF0.9542098603035335
aF0.926951487767526
aF0.9548457778469804
aF0.9262962034610662
aF0.9516710089622465
aF0.9525163458301705
aF0.9531508631062873
aF0.9482458569914238
asI1
(lp762
F0.9561301906468108
aF0.9619546036739753
aF0.9609088596354529
aF0.957510460152584
aF0.9613522332783591
aF0.9551833806468191
aF0.9574049273235763
aF0.9552356706279604
aF0.9566220159885895
aF0.9556370612025976
asI2
(lp763
F0.9583702226114552
aF0.9648984810370449
aF0.9684228694352679
aF0.9644259089883791
aF0.965415010363919
aF0.9612962720006459
aF0.9626195815124865
aF0.9654362164593739
aF0.9659103218172198
aF0.965201466254179
asI3
(lp764
F0.96858405942825
aF0.9719100001783729
aF0.971073703992305
aF0.9709497002771178
aF0.9730461015921074
aF0.9697771327301168
aF0.9696266503087274
aF0.9712482373853668
aF0.9708357717711015
aF0.9700707158993374
asI4
(lp765
F0.9757860009429092
aF0.977777474868062
aF0.9776429758953805
aF0.9753503829428131
aF0.9767805043684278
aF0.9730417998178253
aF0.9717814537452846
aF0.9759155946545183
aF0.9744585984382668
aF0.9753870030660834
asI5
(lp766
F0.9802240626874378
aF0.9800346495347252
aF0.9814373780846959
aF0.9805128144303166
aF0.9804583229255045
aF0.979405984095018
aF0.9774714388196608
aF0.9809843413904026
aF0.9784635802493911
aF0.9778594414425886
asI6
(lp767
F0.9833654521076857
aF0.984357684668616
aF0.9833386376978934
aF0.9823191262177927
aF0.9838180728513968
aF0.9807250870620065
aF0.982278732304725
aF0.9838603863955341
aF0.9825168563706391
aF0.9818577197549868
asI7
(lp768
F0.9858238943677761
aF0.9868274779153
aF0.9872573796504013
aF0.9848974115663356
aF0.9865975001956591
aF0.9856868704632643
aF0.9845308296502967
aF0.9850954448161507
aF0.9866372294525343
aF0.9850745416482253
asI8
(lp769
F0.9875824463377961
aF0.9878556755256603
aF0.9900502179327136
aF0.9867796973980602
aF0.9888437155136557
aF0.9881748489736091
aF0.9860211087789106
aF0.9871161273116071
aF0.9878958376969278
aF0.9871520683263607
asI9
(lp770
F0.989683554576166
aF0.9892053844049623
aF0.9906614852029049
aF0.9881877887429726
aF0.9916403416340407
aF0.9887577473051503
aF0.9885026365365654
aF0.989683554576166
aF0.9894741342807956
aF0.9894855671000375
asI10
(lp771
F0.991587379117724
aF0.9908248434188762
aF0.9915362505561686
aF0.9898984757485115
aF0.9937696191505812
aF0.9908441868498409
aF0.9901687952804044
aF0.9910789591853582
aF0.9913665145598061
aF0.9910789591853582
asssS'getpool_pc_sel_unc'
p772
(dp773
g3
(dp774
I0
(lp775
F0.9537946428571429
aF0.9471672661870504
aF0.9539325842696629
aF0.9603514305023654
aF0.9533318375588962
aF0.9543022737405261
aF0.9544241885282347
aF0.9538255632389026
aF0.9509738079247817
aF0.957101578128473
asI1
(lp776
F0.963431151241535
aF0.9517962710322874
aF0.9606818181818182
aF0.961950330371383
aF0.9643748581801679
aF0.9625788999098287
aF0.9597571942446043
aF0.9584931197834423
aF0.9587955625990491
aF0.9579680827152169
asI2
(lp777
F0.9691780821917808
aF0.9592916283348666
aF0.9655172413793104
aF0.9684259045863102
aF0.9669497360569199
aF0.9680802553579572
aF0.9649840836743975
aF0.9648642482318047
aF0.9656514769864896
aF0.9668106387815413
asI3
(lp778
F0.9720554272517321
aF0.9646347138203816
aF0.9706976744186047
aF0.9755187689438097
aF0.9726027397260274
aF0.9739391143911439
aF0.9726310947562098
aF0.9716132010154628
aF0.970813064628214
aF0.9701080708208784
asI4
(lp779
F0.9771028037383177
aF0.9689265536723164
aF0.9781176470588235
aF0.9799481009672093
aF0.9776838148931172
aF0.9780681287914139
aF0.9771986970684039
aF0.9771188419332244
aF0.9765643309116475
aF0.9758083275180275
asI5
(lp780
F0.981323877068558
aF0.974511672224869
aF0.9811904761904762
aF0.9835282883743137
aF0.9816971713810316
aF0.9825306893295562
aF0.9811676082862524
aF0.9822820694542878
aF0.9803177614417833
aF0.9804659919981172
asI6
(lp781
F0.9837320574162679
aF0.9792671166827387
aF0.984578313253012
aF0.9862285576226142
aF0.9846042819340871
aF0.9847109412326803
aF0.9847546450690805
aF0.9849390389672484
aF0.9841612670986322
aF0.983567516075256
asI7
(lp782
F0.9871670702179177
aF0.9824304538799414
aF0.9858536585365854
aF0.9885057471264368
aF0.9868517165814463
aF0.9879110251450677
aF0.9867405978784957
aF0.9876602951850956
aF0.9868836531454943
aF0.9865027717522294
asI8
(lp783
F0.9897058823529412
aF0.9846837944664032
aF0.9874074074074074
aF0.9908393166625402
aF0.9889080601429627
aF0.9897209985315712
aF0.9890190336749634
aF0.9899583639480773
aF0.9889353331694123
aF0.9885337887289583
asI9
(lp784
F0.990818858560794
aF0.9862431215607804
aF0.9895
aF0.9919779393331662
aF0.9910157224856501
aF0.9918235877106045
aF0.991106719367589
aF0.9910736424497892
aF0.9902912621359223
aF0.9906149666584342
asI10
(lp785
F0.99321608040201
aF0.9883485309017224
aF0.9906329113924051
aF0.9936532114749936
aF0.9919130654536265
aF0.9932262920220772
aF0.9919959979989995
aF0.9919658548832538
aF0.9906730526846483
aF0.991997999499875
assg16
(dp786
I0
(lp787
g19
(g23
S'\x86X*=\xc9L\xe5?'
p788
tp789
Rp790
ag19
(g23
S'?&*\xb6\xb9!\xdf?'
p791
tp792
Rp793
ag19
(g23
S'\xa6\xc7\x1c9\xef!\xe4?'
p794
tp795
Rp796
ag19
(g23
S'\x18\x1d~\xde`\xf7\xe5?'
p797
tp798
Rp799
ag19
(g23
S'\\\x83}e\xdc\\\xe5?'
p800
tp801
Rp802
ag19
(g23
S'\xdc\xee\x9d\xee8o\xe5?'
p803
tp804
Rp805
ag19
(g23
S'\xafMn\x9d\x1e\x90\xe5?'
p806
tp807
Rp808
ag19
(g23
S'\x02|\x96\xf9\x92]\xe5?'
p809
tp810
Rp811
ag19
(g23
S'\xa4\x15\xfdW@H\xe5?'
p812
tp813
Rp814
ag19
(g23
S'\xf5\xa76\xc7\xbb\x15\xe5?'
p815
tp816
Rp817
asI1
(lp818
g19
(g23
S'\xbd\xe8\xe6\xc9\xb2\xb0\xe6?'
p819
tp820
Rp821
ag19
(g23
S' \x84\x93y\x16J\xe5?'
p822
tp823
Rp824
ag19
(g23
S'\xc8l\xd8\xebKt\xe5?'
p825
tp826
Rp827
ag19
(g23
S'L\x8a-\x06\xae\x84\xe6?'
p828
tp829
Rp830
ag19
(g23
S'Ry\x99\xeeC:\xe7?'
p831
tp832
Rp833
ag19
(g23
S'\xc8\xc3\xeb\xb4r\x1d\xe6?'
p834
tp835
Rp836
ag19
(g23
S'\xafS\x14\x1e\xd3\x1d\xe6?'
p837
tp838
Rp839
ag19
(g23
S'\x84~r\xf6\xbf\xd3\xe5?'
p840
tp841
Rp842
ag19
(g23
S'\xa4x\xd3BT\xb9\xe5?'
p843
tp844
Rp845
ag19
(g23
S'\xf4\n\xaf\xecj\xae\xe5?'
p846
tp847
Rp848
asI2
(lp849
g19
(g23
S'=-\x84\xf0-e\xe7?'
p850
tp851
Rp852
ag19
(g23
S'2)B}bY\xe5?'
p853
tp854
Rp855
ag19
(g23
S'/)\xc4\xc53?\xe6?'
p856
tp857
Rp858
ag19
(g23
S'\x83E\x96\x1c\xff\xc6\xe6?'
p859
tp860
Rp861
ag19
(g23
S'\x1a\x8b\x13\xf7V\xf5\xe6?'
p862
tp863
Rp864
ag19
(g23
S'9|\xae.\x9c\xd6\xe6?'
p865
tp866
Rp867
ag19
(g23
S'f\xaaX\xa5s\xe4\xe6?'
p868
tp869
Rp870
ag19
(g23
S']\x01\xcf\xde\n}\xe6?'
p871
tp872
Rp873
ag19
(g23
S'\x91\xae\x0e\x9d\xc9\xad\xe6?'
p874
tp875
Rp876
ag19
(g23
S'\xd0\xb5\xe3\xd6\x14\x0b\xe7?'
p877
tp878
Rp879
asI3
(lp880
g19
(g23
S'\xf4\xbe\x9f,WS\xe7?'
p881
tp882
Rp883
ag19
(g23
S'Y{\n\xd9mP\xe6?'
p884
tp885
Rp886
ag19
(g23
S'\xe7\x89k1\xe52\xe7?'
p887
tp888
Rp889
ag19
(g23
S'\x85\x94\xb6\xa4n\xb4\xe7?'
p890
tp891
Rp892
ag19
(g23
S'.\xd7]50\xa5\xe7?'
p893
tp894
Rp895
ag19
(g23
S'\xbe\xcdw\xb1\x92\xdb\xe7?'
p896
tp897
Rp898
ag19
(g23
S'\x14\xd6\xf4\x0c!\xd3\xe7?'
p899
tp900
Rp901
ag19
(g23
S'\x86\xf2o\x0f\xf7\x1c\xe7?'
p902
tp903
Rp904
ag19
(g23
S'\xc4\x14\xb2\xfcuH\xe7?'
p905
tp906
Rp907
ag19
(g23
S'\x9a\xd2\xf0\xb2\xa1\x05\xe7?'
p908
tp909
Rp910
asI4
(lp911
g19
(g23
S'\xe9\xae\xd0\xe6B\xe8\xe7?'
p912
tp913
Rp914
ag19
(g23
S';{\xe1\xe6k\xe4\xe6?'
p915
tp916
Rp917
ag19
(g23
S'F\x98\xc7\x17\x9ba\xe8?'
p918
tp919
Rp920
ag19
(g23
S'=\nu\x8a\x14S\xe8?'
p921
tp922
Rp923
ag19
(g23
S'\xb1R\xc7lF\x18\xe8?'
p924
tp925
Rp926
ag19
(g23
S'\xde\x97\xcbq\xff\xfa\xe7?'
p927
tp928
Rp929
ag19
(g23
S'\x04\xd1\xf5\xc8\x00/\xe8?'
p930
tp931
Rp932
ag19
(g23
S'\x0f\x028\x0e\xdc\xcd\xe7?'
p933
tp934
Rp935
ag19
(g23
S'\x13.5\xe0l\xe3\xe7?'
p936
tp937
Rp938
ag19
(g23
S'\xd3\xe9\x08u}\xa7\xe7?'
p939
tp940
Rp941
asI5
(lp942
g19
(g23
S'\xd5\xb4\n}\xa8\xd2\xe8?'
p943
tp944
Rp945
ag19
(g23
S'\xf8Mh\xb7\xbc\x9c\xe7?'
p946
tp947
Rp948
ag19
(g23
S'\xf9Ik\xdbM\xaa\xe8?'
p949
tp950
Rp951
ag19
(g23
S"w_'V\xe3\xfa\xe8?"
p952
tp953
Rp954
ag19
(g23
S'\xa9T\xd4\x13\x96g\xe8?'
p955
tp956
Rp957
ag19
(g23
S'>\xbe\xc0\x0c\x93\xb1\xe8?'
p958
tp959
Rp960
ag19
(g23
S'\xc2\xb0k\xed\xdfJ\xe8?'
p961
tp962
Rp963
ag19
(g23
S'"\xf6J\x99S9\xe8?'
p964
tp965
Rp966
ag19
(g23
S'\xcaK\xec)\x18%\xe8?'
p967
tp968
Rp969
ag19
(g23
S'\x15l%gx\xbd\xe7?'
p970
tp971
Rp972
asI6
(lp973
g19
(g23
S'\xce*\x8bUQ\xb4\xe8?'
p974
tp975
Rp976
ag19
(g23
S'R\xa9\xbf@\xa3\xab\xe7?'
p977
tp978
Rp979
ag19
(g23
S'\xf8\xa4I_\x9b\x18\xe9?'
p980
tp981
Rp982
ag19
(g23
S'\xa7WW\x01\xdc3\xe9?'
p983
tp984
Rp985
ag19
(g23
S'\x1cV\xbaK\xb33\xe8?'
p986
tp987
Rp988
ag19
(g23
S'-\x13\x81\xd4su\xe8?'
p989
tp990
Rp991
ag19
(g23
S'<]\xa1Hx\xd0\xe8?'
p992
tp993
Rp994
ag19
(g23
S'\x12\xa3%\x94d[\xe8?'
p995
tp996
Rp997
ag19
(g23
S'Z"\xd2PVl\xe8?'
p998
tp999
Rp1000
ag19
(g23
S'\xa4=]F~\xe5\xe7?'
p1001
tp1002
Rp1003
asI7
(lp1004
g19
(g23
S'M\xcedD`\x84\xe8?'
p1005
tp1006
Rp1007
ag19
(g23
S'\xc4\x07\x8b\x9fk\xd2\xe7?'
p1008
tp1009
Rp1010
ag19
(g23
S'T\x1d\xc4\x05\x8a@\xe9?'
p1011
tp1012
Rp1013
ag19
(g23
S'\xec\x9e`\xb3\xc8\x9f\xe9?'
p1014
tp1015
Rp1016
ag19
(g23
S'E;\tFKV\xe8?'
p1017
tp1018
Rp1019
ag19
(g23
S'\xb8\xb6\x12\x94L;\xe9?'
p1020
tp1021
Rp1022
ag19
(g23
S'\x82\x93d\xfe\xe2\xdd\xe8?'
p1023
tp1024
Rp1025
ag19
(g23
S')\x7f\x11\xbc.\x9c\xe8?'
p1026
tp1027
Rp1028
ag19
(g23
S'D\xb8!LS\xed\xe8?'
p1029
tp1030
Rp1031
ag19
(g23
S'\x81\x9b5W\x956\xe8?'
p1032
tp1033
Rp1034
asI8
(lp1035
g19
(g23
S'w\xc8\xdf\xe8t\x18\xe9?'
p1036
tp1037
Rp1038
ag19
(g23
S'5 \xcc\xb0\x84\xe3\xe7?'
p1039
tp1040
Rp1041
ag19
(g23
S'\x08o\x0f\x84>*\xe9?'
p1042
tp1043
Rp1044
ag19
(g23
S'\n\x04\xb8\xb8\xaf\x8b\xe9?'
p1045
tp1046
Rp1047
ag19
(g23
S'\xc3\xa3P\xea\xbf\xc6\xe8?'
p1048
tp1049
Rp1050
ag19
(g23
S'\xbc\x93\x02m\xeev\xe9?'
p1051
tp1052
Rp1053
ag19
(g23
S'!\xae\x12%e^\xe9?'
p1054
tp1055
Rp1056
ag19
(g23
S'\x04\x86/\xf5"[\xe9?'
p1057
tp1058
Rp1059
ag19
(g23
S"\x85Z}\xe6\xf7'\xe9?"
p1060
tp1061
Rp1062
ag19
(g23
S'\xe1tN\xb2\x92v\xe8?'
p1063
tp1064
Rp1065
asI9
(lp1066
g19
(g23
S'\x88e\xf0\xa0\n\xf4\xe8?'
p1067
tp1068
Rp1069
ag19
(g23
S's\x84|t3\xdb\xe7?'
p1070
tp1071
Rp1072
ag19
(g23
S'`q\xf246\xaa\xe9?'
p1073
tp1074
Rp1075
ag19
(g23
S'\xc4\xa2\x12\x8a\xda\xf1\xe9?'
p1076
tp1077
Rp1078
ag19
(g23
S'\xb3\xdf\x13\x03r0\xe9?'
p1079
tp1080
Rp1081
ag19
(g23
S'QZf\xff)"\xea?'
p1082
tp1083
Rp1084
ag19
(g23
S'&\xd7\xcf\xa4\xe1\xf3\xe9?'
p1085
tp1086
Rp1087
ag19
(g23
S'd3)OM\xb1\xe9?'
p1088
tp1089
Rp1090
ag19
(g23
S'\xc7\nX\xccX\x90\xe9?'
p1091
tp1092
Rp1093
ag19
(g23
S'/\x0cC`/\xcd\xe8?'
p1094
tp1095
Rp1096
asI10
(lp1097
g19
(g23
S'\xd0\x13\x8d\x10V\x01\xea?'
p1098
tp1099
Rp1100
ag19
(g23
S'rR>\xceo\xe7\xe7?'
p1101
tp1102
Rp1103
ag19
(g23
S'\nF\x06U\xec\xe0\xe9?'
p1104
tp1105
Rp1106
ag19
(g23
S'\x96\xd1\xc3!O|\xea?'
p1107
tp1108
Rp1109
ag19
(g23
S'\xb41Y]\x9c\x7f\xe9?'
p1110
tp1111
Rp1112
ag19
(g23
S'\x84\xb9\xda\x1aS\x90\xea?'
p1113
tp1114
Rp1115
ag19
(g23
S'\xf1\xa4\xe3?zD\xea?'
p1116
tp1117
Rp1118
ag19
(g23
S'\x89N\x01i\xed\x00\xea?'
p1119
tp1120
Rp1121
ag19
(g23
S'\xb7\xba\xe1\xacR\x91\xe9?'
p1122
tp1123
Rp1124
ag19
(g23
S'J,q\xb8\xa1\n\xe9?'
p1125
tp1126
Rp1127
assg366
(dp1128
I0
(lp1129
F0.01895734597156398
aI0
aF0.055299539170506916
aF0.23478260869565218
aF0.02803738317757009
aF0.037558685446009384
aF0.05529953917050691
aF0.028169014084507043
aF0.017937219730941707
aF0.13452914798206278
asI1
(lp1130
F0.25
aF0.018518518518518517
aF0.18779342723004694
aF0.17733990147783255
aF0.26291079812206575
aF0.2314814814814815
aF0.12682926829268293
aF0.08910891089108912
aF0.11650485436893204
aF0.06965174129353233
asI2
(lp1131
F0.3414634146341463
aF0.16901408450704225
aF0.2105263157894737
aF0.3045685279187817
aF0.2653061224489796
aF0.3
aF0.2222222222222222
aF0.17204301075268816
aF0.21875
aF0.23958333333333334
asI3
(lp1132
F0.3387978142076503
aF0.21649484536082475
aF0.27586206896551724
aF0.39999999999999997
aF0.33707865168539325
aF0.3957219251336898
aF0.327683615819209
aF0.2971428571428571
aF0.3
aF0.23529411764705882
asI4
(lp1133
F0.3875
aF0.27472527472527475
aF0.4
aF0.45161290322580644
aF0.3708609271523179
aF0.41250000000000003
aF0.37974683544303794
aF0.3552631578947368
aF0.375
aF0.30666666666666664
asI5
(lp1134
F0.45517241379310347
aF0.33540372670807456
aF0.41481481481481475
aF0.4812030075187969
aF0.40310077519379844
aF0.46376811594202894
aF0.375
aF0.4
aF0.4028776978417266
aF0.3140495867768595
asI6
(lp1135
F0.43333333333333324
aF0.328125
aF0.4576271186440678
aF0.5043478260869566
aF0.3846153846153846
aF0.44827586206896547
aF0.42857142857142855
aF0.39999999999999997
aF0.4210526315789473
aF0.3300970873786408
asI7
(lp1136
F0.41758241758241754
aF0.34545454545454546
aF0.4727272727272727
aF0.5436893203883495
aF0.4
aF0.5098039215686274
aF0.4329896907216495
aF0.42696629213483145
aF0.47058823529411764
aF0.3636363636363636
asI8
(lp1137
F0.4749999999999999
aF0.35416666666666674
aF0.4631578947368421
aF0.5432098765432098
aF0.4444444444444444
aF0.5333333333333333
aF0.4827586206896552
aF0.4810126582278481
aF0.49438202247191015
aF0.38961038961038963
asI9
(lp1138
F0.46376811594202905
aF0.3529411764705882
aF0.5116279069767442
aF0.5675675675675675
aF0.48571428571428577
aF0.5822784810126582
aF0.5384615384615384
aF0.5135135135135135
aF0.5185185185185185
aF0.42424242424242425
asI10
(lp1139
F0.5423728813559322
aF0.3611111111111111
aF0.5316455696202532
aF0.6153846153846153
aF0.5151515151515151
aF0.6086956521739131
aF0.5675675675675675
aF0.5428571428571428
aF0.5194805194805194
aF0.4482758620689655
assg379
(dp1140
I0
(lp1141
F0.9548613927144202
aF0.9214676578792387
aF0.9474527110150058
aF0.9569072815265576
aF0.9544202855870979
aF0.9553462034604822
aF0.955463021121768
aF0.9548911246916468
aF0.9521746118086936
aF0.9528519838577753
asI1
(lp1142
F0.9623053759840691
aF0.9529571816492044
aF0.9566666350630597
aF0.9626766512379911
aF0.9650130684788831
aF0.9598420139839534
aF0.9605686228859406
aF0.9593555061387614
aF0.9580650615086258
aF0.9588519994354796
asI2
(lp1143
F0.96781993043387
aF0.9552817452755283
aF0.963917983495258
aF0.9661674354769083
aF0.9663287596683909
aF0.9660937037471492
aF0.9655998298179176
aF0.9654833727744919
aF0.9654622924820963
aF0.9673639835460088
asI3
(lp1144
F0.9706193522047916
aF0.9631013175919763
aF0.9705425020584351
aF0.9738225474931457
aF0.9721344778590637
aF0.9726024496959114
aF0.9730079919160415
aF0.9705918924452129
aF0.9702468545758084
aF0.9705566910288309
asI4
(lp1145
F0.976133059374645
aF0.967789587703605
aF0.9780165868455647
aF0.9787063999115407
aF0.9775499872892958
aF0.976792984728916
aF0.9770923052294579
aF0.9766094168941661
aF0.9758147595962124
aF0.9761024313122397
asI5
(lp1146
F0.9809798941907302
aF0.9739742987666525
aF0.9813685302088293
aF0.9830029378355873
aF0.9815290725503157
aF0.9817943809498845
aF0.9813459129203426
aF0.9818061749312776
aF0.9796082085198015
aF0.9806576002506042
asI6
(lp1147
F0.9835669971907043
aF0.9790154015345299
aF0.9846979916401721
aF0.985731727666502
aF0.9843627035231122
aF0.9839150049250596
aF0.9848715098181292
aF0.9847162045399388
aF0.9837037701341501
aF0.9837030594920969
asI7
(lp1148
F0.9869364177275
aF0.9821520361359615
aF0.9859543463135051
aF0.9880747463778918
aF0.986600535815104
aF0.9874213974924163
aF0.9868289431442624
aF0.9874359122889933
aF0.9864935776730771
aF0.9865942034880318
asI8
(lp1149
F0.989510248210213
aF0.9843841548023442
aF0.9874871207112411
aF0.990411127364404
aF0.988686836261818
aF0.9892736473764605
aF0.9890796313213003
aF0.9900090142942263
aF0.9885687596296987
aF0.9885997627694995
asI9
(lp1150
F0.9906023293705312
aF0.9859186319302544
aF0.9895554267593542
aF0.9916992219979492
aF0.9908172089943043
aF0.9915638732431074
aF0.9911464692139185
aF0.9911136693423355
aF0.9901257031878617
aF0.9906591569134586
asI10
(lp1151
F0.993239183526195
aF0.9880141279511048
aF0.9906770150890691
aF0.9934264801049061
aF0.9917322685261346
aF0.9931043016450982
aF0.9920281981184529
aF0.9919982822595624
aF0.9905032030533457
aF0.9920301188833474
asssS'getpool_dt_unc'
p1152
(dp1153
g3
(dp1154
I0
(lp1155
F0.9496659242761692
aF0.9519445686186857
aF0.9600267976775346
aF0.9515192135835567
aF0.9493755575379126
aF0.9507026544724515
aF0.9519572953736655
aF0.9528574605292417
aF0.9504444444444444
aF0.9491942703670546
asI1
(lp1156
F0.9551801801801801
aF0.9588607594936709
aF0.9677055103884372
aF0.9631721644826028
aF0.9555705908885882
aF0.9569140536882472
aF0.9615384615384616
aF0.9599730155160783
aF0.9561797752808989
aF0.9547306473517428
asI2
(lp1157
F0.9644646924829157
aF0.9650205761316872
aF0.9716765646413887
aF0.9670932358318098
aF0.9641879562043796
aF0.9628108601414557
aF0.9670154686078253
aF0.9677052535819877
aF0.9629545454545455
aF0.9622252747252747
asI3
(lp1158
F0.9682027649769586
aF0.9720166512488436
aF0.9748151571164511
aF0.9736477115117892
aF0.9718504845408399
aF0.9706900530810062
aF0.9730786930510814
aF0.971704623878537
aF0.9691954022988506
aF0.9675775822139879
asI4
(lp1159
F0.9738927738927738
aF0.9784744969583529
aF0.978494623655914
aF0.9791861552853134
aF0.976657329598506
aF0.9759514359094092
aF0.9788175046554934
aF0.97556434721899
aF0.9755813953488373
aF0.975398313027179
asI5
(lp1160
F0.9757075471698113
aF0.9801136363636364
aF0.9829706717123936
aF0.9822527212494084
aF0.9803967879074161
aF0.9796834396409166
aF0.9821008007536505
aF0.9797504120555687
aF0.98
aF0.9784257942152679
asI6
(lp1161
F0.9799522673031026
aF0.9834690943938668
aF0.987075155576831
aF0.9844348659003831
aF0.982791586998088
aF0.9830265359789625
aF0.9842707340324118
aF0.9840362163450084
aF0.9823809523809524
aF0.9817658349328215
asI7
(lp1162
F0.9821256038647344
aF0.9856935014548982
aF0.9883720930232558
aF0.9866698982064954
aF0.9847605224963716
aF0.9852407452213888
aF0.9864930053063193
aF0.9862551241861587
aF0.9843373493975903
aF0.9827586206896551
asI8
(lp1163
F0.9845965770171149
aF0.9882179675994109
aF0.9897008337420304
aF0.9887144259077527
aF0.9872673849167483
aF0.9879990203281901
aF0.989013671875
aF0.9880400292897242
aF0.9868292682926829
aF0.9847590953785644
asI9
(lp1164
F0.9873762376237624
aF0.989314115308151
aF0.990317775571003
aF0.9903129657228018
aF0.989340604858701
aF0.9898338705678156
aF0.9911023232822541
aF0.9896219421793921
aF0.9896296296296296
aF0.987058237929318
asI10
(lp1165
F0.9897243107769423
aF0.9906894816305989
aF0.9917043740573153
aF0.9922032193158954
aF0.9909638554216867
aF0.9909615867436605
aF0.992992992992993
aF0.9914936202151614
aF0.9915
aF0.9904233870967742
assg16
(dp1166
I0
(lp1167
g19
(g23
S'\xefBH\x05x6\xe5?'
p1168
tp1169
Rp1170
ag19
(g23
S'\xd6\\]\x85\xe9Y\xe5?'
p1171
tp1172
Rp1173
ag19
(g23
S'\xbe_w\xfe\x8a\xed\xe5?'
p1174
tp1175
Rp1176
ag19
(g23
S'W\xfb\x80Q}4\xdf?'
p1177
tp1178
Rp1179
ag19
(g23
S'\xaf\xdb\xf7\xddA+\xdf?'
p1180
tp1181
Rp1182
ag19
(g23
S'p&\xc7\xa5\xf90\xdf?'
p1183
tp1184
Rp1185
ag19
(g23
S'\xe7 \xdb\xad_6\xdf?'
p1186
tp1187
Rp1188
ag19
(g23
S'\xa9\xa4\xf0\xd8\xfb\x9c\xe4?'
p1189
tp1190
Rp1191
ag19
(g23
S'\x83\xaa\xda\xff\xdc/\xdf?'
p1192
tp1193
Rp1194
ag19
(g23
S'\xfb0R\xe8\x94\xf9\xe3?'
p1195
tp1196
Rp1197
asI1
(lp1198
g19
(g23
S'\x97\xb3\x1bp\xa2\xb4\xe5?'
p1199
tp1200
Rp1201
ag19
(g23
S'\xc0N\xbb\xf0\xc3k\xe5?'
p1202
tp1203
Rp1204
ag19
(g23
S'_\xf5S\xcc\x0f\x10\xe7?'
p1205
tp1206
Rp1207
ag19
(g23
S'\xdc\x1f\x99\xe9\xd5\x81\xe6?'
p1208
tp1209
Rp1210
ag19
(g23
S'g\xf7\xc1\xeb\xf8%\xe5?'
p1211
tp1212
Rp1213
ag19
(g23
S'\x95d\xa0{J\xed\xe5?'
p1214
tp1215
Rp1216
ag19
(g23
S't\xfe\xee0\x89\xe4\xe5?'
p1217
tp1218
Rp1219
ag19
(g23
S'\x83\x87e\xdak`\xe6?'
p1220
tp1221
Rp1222
ag19
(g23
S'\xeb\xd3Dr\xa7\xa7\xe5?'
p1223
tp1224
Rp1225
ag19
(g23
S'3\xc3@\x8a\xaa\xcd\xe4?'
p1226
tp1227
Rp1228
asI2
(lp1229
g19
(g23
S'm\xd2\x82\xc3\xbb\xd4\xe6?'
p1230
tp1231
Rp1232
ag19
(g23
S'\x13}\x9e\x8fo\x7f\xe6?'
p1233
tp1234
Rp1235
ag19
(g23
S'w\xc8\x14J\x91\xae\xe7?'
p1236
tp1237
Rp1238
ag19
(g23
S'\xb8\x82\xd0\x96\xa8\xbd\xe6?'
p1239
tp1240
Rp1241
ag19
(g23
S'\x1a\xcd\xc2G>\x17\xe6?'
p1242
tp1243
Rp1244
ag19
(g23
S'J\xd5e\x1f\x8eU\xe6?'
p1245
tp1246
Rp1247
ag19
(g23
S'\xac\xd4\xaeC\xfa\xb7\xe6?'
p1248
tp1249
Rp1250
ag19
(g23
S'X\xd8(\xb5\xae\x1a\xe7?'
p1251
tp1252
Rp1253
ag19
(g23
S'\x985\x06\xbea"\xe6?'
p1254
tp1255
Rp1256
ag19
(g23
S'/\xaa^Pu\xbd\xe6?'
p1257
tp1258
Rp1259
asI3
(lp1260
g19
(g23
S'\n467\x15A\xe7?'
p1261
tp1262
Rp1263
ag19
(g23
S'\\\x15_\xbf\x03]\xe7?'
p1264
tp1265
Rp1266
ag19
(g23
S'A\xa2\x89\xce>\xb3\xe7?'
p1267
tp1268
Rp1269
ag19
(g23
S'=;\xf7\xcc\x80\x90\xe7?'
p1270
tp1271
Rp1272
ag19
(g23
S'\xbb\x8aM\xec\xd2\xb7\xe6?'
p1273
tp1274
Rp1275
ag19
(g23
S'jX\x11,3\x8d\xe7?'
p1276
tp1277
Rp1278
ag19
(g23
S'\xcf\xcb\x1f\xb0&\xaa\xe7?'
p1279
tp1280
Rp1281
ag19
(g23
S'\xca\x17\x9e\xc0\rz\xe7?'
p1282
tp1283
Rp1284
ag19
(g23
S'\xc1\xc9C\xaae\xf3\xe6?'
p1285
tp1286
Rp1287
ag19
(g23
S'w8$l\xa3J\xe7?'
p1288
tp1289
Rp1290
asI4
(lp1291
g19
(g23
S'\xa4L\xc9\x0c\xd0\x1e\xe8?'
p1292
tp1293
Rp1294
ag19
(g23
S'\x8f \xca\x8e\x03+\xe8?'
p1295
tp1296
Rp1297
ag19
(g23
S'\x18\xa1\x1a\xf7\xb0^\xe8?'
p1298
tp1299
Rp1300
ag19
(g23
S'\xfb\\\x1apO2\xe8?'
p1301
tp1302
Rp1303
ag19
(g23
S'P\xbb4\xb1(\x18\xe7?'
p1304
tp1305
Rp1306
ag19
(g23
S'\xf7\x8d\xc8\xbc\xbd\xc7\xe7?'
p1307
tp1308
Rp1309
ag19
(g23
S'pe\x85\x98\x13V\xe8?'
p1310
tp1311
Rp1312
ag19
(g23
S'\xc9/9g\x92\xd4\xe7?'
p1313
tp1314
Rp1315
ag19
(g23
S'V*\xf7\xed$\xbd\xe7?'
p1316
tp1317
Rp1318
ag19
(g23
S'\x17)\x15\x87\x8e\x8f\xe8?'
p1319
tp1320
Rp1321
asI5
(lp1322
g19
(g23
S'\no\xff\xbd\xc1$\xe8?'
p1323
tp1324
Rp1325
ag19
(g23
S'\xe6e\xefw\x95\xd2\xe7?'
p1326
tp1327
Rp1328
ag19
(g23
S'\xad\xd3\x1b\xe18\xf3\xe8?'
p1329
tp1330
Rp1331
ag19
(g23
S'\x87\xebU\x16*l\xe8?'
p1332
tp1333
Rp1334
ag19
(g23
S'\x052\x84Z\x84\xa3\xe7?'
p1335
tp1336
Rp1337
ag19
(g23
S'\x96\x929\xde\xfb\x18\xe8?'
p1338
tp1339
Rp1340
ag19
(g23
S'\x7f~#(\xb3h\xe8?'
p1341
tp1342
Rp1343
ag19
(g23
S'\x1cs\xf3\r\xcfT\xe8?'
p1344
tp1345
Rp1346
ag19
(g23
S'rt|\xdf0\xa5\xe7?'
p1347
tp1348
Rp1349
ag19
(g23
S'?IWb\x9d\x8f\xe8?'
p1350
tp1351
Rp1352
asI6
(lp1353
g19
(g23
S'l\xb3v\x9d2v\xe8?'
p1354
tp1355
Rp1356
ag19
(g23
S'\xac\xc25\x8cp\x08\xe8?'
p1357
tp1358
Rp1359
ag19
(g23
S'\xaa\xe7(p\xce\xc0\xe9?'
p1360
tp1361
Rp1362
ag19
(g23
S'\x1f\x82\xaaPP\xca\xe7?'
p1363
tp1364
Rp1365
ag19
(g23
S'\xf2\x1c\x1bcNt\xe7?'
p1366
tp1367
Rp1368
ag19
(g23
S'a\x1e\xfe\x1cv\xb1\xe8?'
p1369
tp1370
Rp1371
ag19
(g23
S'\xe3\x07R\xbb1\xa4\xe8?'
p1372
tp1373
Rp1374
ag19
(g23
S'\xe1\xaa\xb1\xacj\xa4\xe8?'
p1375
tp1376
Rp1377
ag19
(g23
S's\xd9\xf9\x16\x8e&\xe8?'
p1378
tp1379
Rp1380
ag19
(g23
S'\x0f\x1c\x94\xf2i\xac\xe8?'
p1381
tp1382
Rp1383
asI7
(lp1384
g19
(g23
S'\xb10\xdf\xaer\x7f\xe8?'
p1385
tp1386
Rp1387
ag19
(g23
S'\x93]\x1a)\xadC\xe8?'
p1388
tp1389
Rp1390
ag19
(g23
S'\xd8\xfe\xea\x0f \xca\xe9?'
p1391
tp1392
Rp1393
ag19
(g23
S'\xadL=K\x8d\x02\xe8?'
p1394
tp1395
Rp1396
ag19
(g23
S'\x7f\x04\xa6R\\\x91\xe7?'
p1397
tp1398
Rp1399
ag19
(g23
S'\xd9\xf0\xcf\xe1\xf9\xa8\xe8?'
p1400
tp1401
Rp1402
ag19
(g23
S'\x9c\xc1Yq"x\xe8?'
p1403
tp1404
Rp1405
ag19
(g23
S'\xd6J\x1c\x9b\x1b\xff\xe8?'
p1406
tp1407
Rp1408
ag19
(g23
S'n\xd3\xdcA\x95e\xe8?'
p1409
tp1410
Rp1411
ag19
(g23
S'\xd1\x83\x85\x82f\xa8\xe8?'
p1412
tp1413
Rp1414
asI8
(lp1415
g19
(g23
S'5\xc6+Y\x9e<\xe8?'
p1416
tp1417
Rp1418
ag19
(g23
S'\xab\xe9&\xd0\x0f\xc2\xe8?'
p1419
tp1420
Rp1421
ag19
(g23
S'~\x94\xb1\x95\xb7\xd5\xe9?'
p1422
tp1423
Rp1424
ag19
(g23
S'\x1b;+\xbf\xdd\x15\xe8?'
p1425
tp1426
Rp1427
ag19
(g23
S'\x0b\x9fy\xf2qt\xe7?'
p1428
tp1429
Rp1430
ag19
(g23
S'\x80\x81\xb3\x81=\xf8\xe8?'
p1431
tp1432
Rp1433
ag19
(g23
S'g\x1c\x8bYN\xda\xe8?'
p1434
tp1435
Rp1436
ag19
(g23
S'\xed\xfe3\x1d~\x08\xe9?'
p1437
tp1438
Rp1439
ag19
(g23
S'(Xv\xaa\xca\x05\xe9?'
p1440
tp1441
Rp1442
ag19
(g23
S'\xb4W\t\xec\xb8\xe3\xe8?'
p1443
tp1444
Rp1445
asI9
(lp1446
g19
(g23
S'\x03\xcc[\x1f\xa5\xbd\xe8?'
p1447
tp1448
Rp1449
ag19
(g23
S':\x95~r\xc1\xe3\xe8?'
p1450
tp1451
Rp1452
ag19
(g23
S'\xb2\xc4\xefv\xf4\xed\xe9?'
p1453
tp1454
Rp1455
ag19
(g23
S'O\x02\xa1\xaa\xf2F\xe8?'
p1456
tp1457
Rp1458
ag19
(g23
S'rt\xf0\xff\x1c\x9d\xe7?'
p1459
tp1460
Rp1461
ag19
(g23
S'\xbbcJ\x8f\x10L\xe9?'
p1462
tp1463
Rp1464
ag19
(g23
S'\x8c5\x95\xe7\xc0h\xe9?'
p1465
tp1466
Rp1467
ag19
(g23
S'\x95\xc7\xc7wT\x05\xe9?'
p1468
tp1469
Rp1470
ag19
(g23
S'\x14\xb3\xcaqHK\xe9?'
p1471
tp1472
Rp1473
ag19
(g23
S'\x8c\x17f\x15\xa7\x00\xe9?'
p1474
tp1475
Rp1476
asI10
(lp1477
g19
(g23
S'\xe0\x9e\xa6pZ8\xe9?'
p1478
tp1479
Rp1480
ag19
(g23
S'Q:\x87\x9a\x98V\xe9?'
p1481
tp1482
Rp1483
ag19
(g23
S'\xed\xa83\xa2sh\xea?'
p1484
tp1485
Rp1486
ag19
(g23
S'\xf9\x81\x1a\x14p\xd5\xe8?'
p1487
tp1488
Rp1489
ag19
(g23
S'\xf3\xa2\xac\x84\x89\xf5\xe7?'
p1490
tp1491
Rp1492
ag19
(g23
S'\xa8\x0c\xdf$d\x7f\xe9?'
p1493
tp1494
Rp1495
ag19
(g23
S'\xf3^#\x96\xab\xe8\xe9?'
p1496
tp1497
Rp1498
ag19
(g23
S'\xe4\xe9\xa1\xc6_\x8e\xe9?'
p1499
tp1500
Rp1501
ag19
(g23
S'\xc8\x1e\x14o\xc2\xd7\xe9?'
p1502
tp1503
Rp1504
ag19
(g23
S'(\xc3\x0e\xe9\xdai\xe9?'
p1505
tp1506
Rp1507
assg366
(dp1508
I0
(lp1509
F0.008771929824561405
aF0.027149321266968326
aF0.1900452488687783
aI0
aI0
aI0
aI0
aF0.03636363636363637
aI0
aF0.034042553191489355
asI1
(lp1510
F0.07441860465116279
aF0.13333333333333333
aF0.3470319634703196
aF0.2557077625570776
aF0.06635071090047394
aF0.10328638497652581
aF0.21198156682027647
aF0.16037735849056603
aF0.06698564593301436
aF0.11504424778761062
asI2
(lp1511
F0.30357142857142855
aF0.1989528795811518
aF0.36082474226804123
aF0.2577319587628866
aF0.19487179487179487
aF0.18090452261306533
aF0.2408376963350785
aF0.30392156862745096
aF0.18090452261306533
aF0.22535211267605632
asI3
(lp1512
F0.29591836734693877
aF0.3085714285714286
aF0.3910614525139665
aF0.3294117647058824
aF0.27380952380952384
aF0.31351351351351353
aF0.3389830508474576
aF0.34224598930481287
aF0.27956989247311825
aF0.28571428571428564
asI4
(lp1513
F0.3846153846153847
aF0.3783783783783784
aF0.4523809523809524
aF0.39455782312925164
aF0.2857142857142857
aF0.35220125786163525
aF0.38095238095238093
aF0.378698224852071
aF0.3478260869565218
aF0.4067796610169491
asI5
(lp1514
F0.37575757575757573
aF0.34375000000000006
aF0.5068493150684932
aF0.4186046511627907
aF0.3025210084033613
aF0.38571428571428573
aF0.3870967741935484
aF0.4189189189189189
aF0.3795620437956204
aF0.40522875816993464
asI6
(lp1515
F0.40845070422535207
aF0.36697247706422015
aF0.5714285714285714
aF0.3434343434343434
aF0.28
aF0.432
aF0.41071428571428575
aF0.42735042735042744
aF0.39344262295081966
aF0.4153846153846154
asI7
(lp1516
F0.41269841269841273
aF0.3917525773195876
aF0.5714285714285715
aF0.36781609195402293
aF0.29213483146067415
aF0.4299065420560748
aF0.391304347826087
aF0.44660194174757273
aF0.4036697247706422
aF0.4132231404958678
asI8
(lp1517
F0.3883495145631068
aF0.44186046511627913
aF0.5714285714285714
aF0.37837837837837834
aF0.27777777777777773
aF0.46153846153846156
aF0.430379746835443
aF0.44943820224719105
aF0.4489795918367347
aF0.43636363636363634
asI9
(lp1518
F0.4395604395604395
aF0.4556962025316456
aF0.5806451612903226
aF0.39999999999999997
aF0.29508196721311475
aF0.4938271604938272
aF0.4857142857142857
aF0.4473684210526315
aF0.475
aF0.44680851063829785
asI10
(lp1519
F0.4675324675324675
aF0.4788732394366197
aF0.6206896551724138
aF0.456140350877193
aF0.33333333333333337
aF0.5135135135135135
aF0.5333333333333333
aF0.5
aF0.5277777777777778
aF0.4864864864864865
assg379
(dp1520
I0
(lp1521
F0.9509312778262066
aF0.9530986049002235
aF0.9577166729338098
aF0.927881014459615
aF0.9247206837750588
aF0.9266768927070529
aF0.928527170510321
aF0.9492709858363857
aF0.9262962034610662
aF0.9420813408555848
asI1
(lp1522
F0.9561853424415191
aF0.9561507942853257
aF0.9652274023536394
aF0.9611708419665681
aF0.9537924049718735
aF0.9578436580744585
aF0.9584972716371362
aF0.9607764963175596
aF0.9571404278697918
aF0.949684043539401
asI2
(lp1523
F0.9622524685704004
aF0.9647600433651263
aF0.9706831650281772
aF0.9659137193130892
aF0.9624444043254278
aF0.9625259187473835
aF0.9662565594768009
aF0.9664442372390617
aF0.9618105198029627
aF0.9621835137855562
asI3
(lp1524
F0.9676937563030997
aF0.9714581333377046
aF0.9732446452741836
aF0.9731313086240724
aF0.9702597909193504
aF0.9706316108800738
aF0.9726124994430552
aF0.9705987727858476
aF0.9681182529239336
aF0.9675444350030247
asI4
(lp1525
F0.9735378059262025
aF0.9783371216076987
aF0.9772580151012018
aF0.9787484220962007
aF0.9758957817200189
aF0.9754551582651997
aF0.9790432734540917
aF0.974576782046273
aF0.9750814842477109
aF0.9757034133492074
asI5
(lp1526
F0.9756240428441667
aF0.9798833352283693
aF0.9819850319380697
aF0.9818193045794584
aF0.9805897132424234
aF0.9792087551318428
aF0.9822618756035806
aF0.9791045015267411
aF0.9787425490573042
aF0.9786601842812856
asI6
(lp1527
F0.9798213099908099
aF0.9832182592430369
aF0.9864150000789474
aF0.9841318148987788
aF0.982940126383277
aF0.9828709016317716
aF0.9843951050337401
aF0.983860884935456
aF0.9818834218965842
aF0.9819331327350977
asI7
(lp1528
F0.9819578496938836
aF0.9854455675692857
aF0.9877981502181351
aF0.9863764120950765
aF0.9848769958678384
aF0.9850475292766393
aF0.9865846140105393
aF0.9863501026624822
aF0.9841249964182028
aF0.9829081383649201
asI8
(lp1529
F0.9843550391469436
aF0.9880010938543373
aF0.9892186626718917
aF0.9884143141466828
aF0.9873486369410345
aF0.9878053948996722
aF0.9890742693835008
aF0.9881118953602058
aF0.9869164625877094
aF0.9848759133796241
asI9
(lp1530
F0.9871628587297044
aF0.989099365398685
aF0.9898547306636201
aF0.9900281833442273
aF0.9893975399659648
aF0.9896518002183338
aF0.9911420730359194
aF0.9896760184338103
aF0.9896836524253448
aF0.9871424153418668
asI10
(lp1531
F0.9897773420815645
aF0.9907330088032181
aF0.9913218582157787
aF0.9919702870664958
aF0.9910047721227178
aF0.9907858435013918
aF0.9930176401445504
aF0.991529952666741
aF0.9915362960839621
aF0.9904694496746917
asssS'getpool_random'
p1532
(dp1533
g3
(dp1534
I0
(lp1535
F0.9506666666666667
aF0.9508888888888889
aF0.9535555555555556
aF0.9515555555555556
aF0.9504444444444444
aF0.9517777777777777
aF0.9491111111111111
aF0.9508888888888889
aF0.9533333333333334
aF0.9506666666666667
asI1
(lp1536
F0.958876404494382
aF0.9615730337078652
aF0.9566292134831461
aF0.9606741573033708
aF0.9570786516853933
aF0.957752808988764
aF0.9525842696629213
aF0.9595505617977528
aF0.9584269662921349
aF0.9566292134831461
asI2
(lp1537
F0.9663636363636363
aF0.9684090909090909
aF0.9634090909090909
aF0.9695454545454546
aF0.9663636363636363
aF0.9634090909090909
aF0.9640909090909091
aF0.9665909090909091
aF0.9686363636363636
aF0.965
asI3
(lp1538
F0.9735632183908046
aF0.9728735632183908
aF0.9675862068965517
aF0.9726436781609196
aF0.9714942528735632
aF0.9689655172413794
aF0.9726436781609196
aF0.973103448275862
aF0.9733333333333334
aF0.9696551724137931
asI4
(lp1539
F0.9765116279069768
aF0.977906976744186
aF0.9737209302325581
aF0.9767441860465116
aF0.9788372093023255
aF0.9739534883720931
aF0.9739534883720931
aF0.977906976744186
aF0.9786046511627907
aF0.9755813953488373
asI5
(lp1540
F0.9811764705882353
aF0.979764705882353
aF0.9788235294117648
aF0.9821176470588235
aF0.9823529411764705
aF0.9776470588235294
aF0.9783529411764705
aF0.9818823529411764
aF0.9818823529411764
aF0.98
asI6
(lp1541
F0.9835714285714285
aF0.9823809523809524
aF0.9828571428571429
aF0.9840476190476191
aF0.985
aF0.9823809523809524
aF0.9823809523809524
aF0.9847619047619047
aF0.9847619047619047
aF0.9830952380952381
asI7
(lp1542
F0.9862650602409638
aF0.9843373493975903
aF0.9855421686746988
aF0.9865060240963855
aF0.9879518072289156
aF0.9850602409638555
aF0.984578313253012
aF0.9862650602409638
aF0.9869879518072289
aF0.9857831325301205
asI8
(lp1543
F0.9875609756097561
aF0.9868292682926829
aF0.9882926829268293
aF0.9880487804878049
aF0.9897560975609756
aF0.9868292682926829
aF0.9873170731707317
aF0.9895121951219512
aF0.988780487804878
aF0.9878048780487805
asI9
(lp1544
F0.9891358024691358
aF0.9898765432098765
aF0.9908641975308642
aF0.9901234567901235
aF0.9906172839506173
aF0.9883950617283951
aF0.9893827160493828
aF0.9918518518518519
aF0.9908641975308642
aF0.9896296296296296
asI10
(lp1545
F0.99075
aF0.99175
aF0.99175
aF0.991
aF0.99175
aF0.9895
aF0.99175
aF0.99275
aF0.99225
aF0.9905
assg16
(dp1546
I0
(lp1547
g19
(g23
S'\x98!\xc0\xfa\xd10\xdf?'
p1548
tp1549
Rp1550
ag19
(g23
S'Z\x00\\\xe7\xc61\xdf?'
p1551
tp1552
Rp1553
ag19
(g23
S'd{h\x14\x08\x1c\xe5?'
p1554
tp1555
Rp1556
ag19
(g23
S'=\x89\x82W\xa54\xdf?'
p1557
tp1558
Rp1559
ag19
(g23
S'\x83\xaa\xda\xff\xdc/\xdf?'
p1560
tp1561
Rp1562
ag19
(g23
S'l\xbc|\xbe5~\xe4?'
p1563
tp1564
Rp1565
ag19
(g23
S'?R*\xf2\x1d*\xdf?'
p1566
tp1567
Rp1568
ag19
(g23
S'Z\x00\\\xe7\xc61\xdf?'
p1569
tp1570
Rp1571
ag19
(g23
S'M\xf8\xa0\xc4\xb6\xd1\xe4?'
p1572
tp1573
Rp1574
ag19
(g23
S'\x9a#\xe0?+W\xe5?'
p1575
tp1576
Rp1577
asI1
(lp1578
g19
(g23
S'\xae]\xf20|\xd2\xe5?'
p1579
tp1580
Rp1581
ag19
(g23
S'J\tQ\xa9\xbf\x87\xe6?'
p1582
tp1583
Rp1584
ag19
(g23
S'\x1c,d\x93$~\xe5?'
p1585
tp1586
Rp1587
ag19
(g23
S'\xae\xc5p\x1dQ\xf5\xe5?'
p1588
tp1589
Rp1590
ag19
(g23
S' O\xb6\xe3\xb6\xbf\xe4?'
p1591
tp1592
Rp1593
ag19
(g23
S'zAR7(\x9d\xe5?'
p1594
tp1595
Rp1596
ag19
(g23
S'vO\xe7\xa5\x119\xdf?'
p1597
tp1598
Rp1599
ag19
(g23
S'\x05W\xd1j=U\xe5?'
p1600
tp1601
Rp1602
ag19
(g23
S'\x99i\xfe\xa7\x94\xf4\xe5?'
p1603
tp1604
Rp1605
ag19
(g23
S'~a3+\x0fI\xe5?'
p1606
tp1607
Rp1608
asI2
(lp1609
g19
(g23
S'\xa1!\xfa\xc6\xb6\xc5\xe6?'
p1610
tp1611
Rp1612
ag19
(g23
S'\xbaU\xdf\x9c\xb5\x7f\xe7?'
p1613
tp1614
Rp1615
ag19
(g23
S'\x80\x9dy;\x953\xe6?'
p1616
tp1617
Rp1618
ag19
(g23
S'\xb91G\xf6\xd5p\xe7?'
p1619
tp1620
Rp1621
ag19
(g23
S'\xbe\x94\xd9\xf4\x92{\xe6?'
p1622
tp1623
Rp1624
ag19
(g23
S'\x9659\xf33\x13\xe6?'
p1625
tp1626
Rp1627
ag19
(g23
S'\xac\x85\xd6Z3\xac\xe6?'
p1628
tp1629
Rp1630
ag19
(g23
S'\x88\xd2\x94#\xb59\xe6?'
p1631
tp1632
Rp1633
ag19
(g23
S')R\xfd\xd0/\x16\xe7?'
p1634
tp1635
Rp1636
ag19
(g23
S'\x85\x8aN\xbdx\xd7\xe6?'
p1637
tp1638
Rp1639
asI3
(lp1640
g19
(g23
S'\xf3{\xb5\x18!\xed\xe7?'
p1641
tp1642
Rp1643
ag19
(g23
S'\x86\xa5Pp3\xdd\xe7?'
p1644
tp1645
Rp1646
ag19
(g23
S'\xcbt\x8e\x0c\x91\xaf\xe6?'
p1647
tp1648
Rp1649
ag19
(g23
S'\x9e\x04\xe6\x88\xab\x81\xe7?'
p1650
tp1651
Rp1652
ag19
(g23
S'\xfdqZN\xd1\r\xe7?'
p1653
tp1654
Rp1655
ag19
(g23
S'\x98\xacD\xe0\xa9\xb5\xe6?'
p1656
tp1657
Rp1658
ag19
(g23
S'\xda\xe0\x8e.I\xad\xe7?'
p1659
tp1660
Rp1661
ag19
(g23
S'\xf3\xb8\x8e\x9b\xb6\x1b\xe7?'
p1662
tp1663
Rp1664
ag19
(g23
S'\x9a\x0c\x9e\xf7\xe0q\xe7?'
p1665
tp1666
Rp1667
ag19
(g23
S'\xdb\x98\xfe"\x81#\xe7?'
p1668
tp1669
Rp1670
asI4
(lp1671
g19
(g23
S'\x93e\xa2\xe2Y\xc0\xe7?'
p1672
tp1673
Rp1674
ag19
(g23
S'\xde,]\xc3G\x8a\xe8?'
p1675
tp1676
Rp1677
ag19
(g23
S'\xd6\x00\x9b|\x06\x80\xe7?'
p1678
tp1679
Rp1680
ag19
(g23
S'\xa8\xdc.\x88\xab\r\xe8?'
p1681
tp1682
Rp1683
ag19
(g23
S'\xf7e\xe6\xabJS\xe8?'
p1684
tp1685
Rp1686
ag19
(g23
S'\xdbd\xb1h#\x9a\xe7?'
p1687
tp1688
Rp1689
ag19
(g23
S'\xd7\x86"^\x0e\x85\xe7?'
p1690
tp1691
Rp1692
ag19
(g23
S')\xad\x91\xd9\xd1\x13\xe7?'
p1693
tp1694
Rp1695
ag19
(g23
S'\x91\x0b\x05F\xaa\xc1\xe7?'
p1696
tp1697
Rp1698
ag19
(g23
S'\xed3\xd8\xfb\xbf\xa9\xe7?'
p1699
tp1700
Rp1701
asI5
(lp1702
g19
(g23
S'\xd2l\xa0\xc2\\\t\xe8?'
p1703
tp1704
Rp1705
ag19
(g23
S'\x8d\xea\x8b\x9b\xea\x9b\xe8?'
p1706
tp1707
Rp1708
ag19
(g23
S"\xff'\xac[\xa6\xed\xe7?"
p1709
tp1710
Rp1711
ag19
(g23
S'\x93\x86\x00\x0e\xff\xdf\xe8?'
p1712
tp1713
Rp1714
ag19
(g23
S'@\x1e\xecje\xb3\xe8?'
p1715
tp1716
Rp1717
ag19
(g23
S'\xb5\xc7{\xe4\xac\xd4\xe7?'
p1718
tp1719
Rp1720
ag19
(g23
S'r\\\t\xec\x10\xd2\xe7?'
p1721
tp1722
Rp1723
ag19
(g23
S'e\x08K\xb0\x1c\xc7\xe7?'
p1724
tp1725
Rp1726
ag19
(g23
S'xO\x85\x85\xf1N\xe8?'
p1727
tp1728
Rp1729
ag19
(g23
S'J\x0e\x8e>8\xe5\xe7?'
p1730
tp1731
Rp1732
asI6
(lp1733
g19
(g23
S'rsq8\xb54\xe8?'
p1734
tp1735
Rp1736
ag19
(g23
S'\xb88=\x1cet\xe8?'
p1737
tp1738
Rp1739
ag19
(g23
S'\xf1\xcaQ\x15]\x97\xe8?'
p1740
tp1741
Rp1742
ag19
(g23
S'@vq}\\\xee\xe8?'
p1743
tp1744
Rp1745
ag19
(g23
S'\x1a\x9b\xf2SD\xf5\xe8?'
p1746
tp1747
Rp1748
ag19
(g23
S']\xf7\xa0\xbb\xdb\x8c\xe8?'
p1749
tp1750
Rp1751
ag19
(g23
S'F\xafT\xf1\x0eN\xe8?'
p1752
tp1753
Rp1754
ag19
(g23
S'\xf2\xec[\xc2v\x05\xe8?'
p1755
tp1756
Rp1757
ag19
(g23
S'\x19\x84\x14\x9f\xc5\xb0\xe8?'
p1758
tp1759
Rp1760
ag19
(g23
S'\xe8q\x15\x01\xb1R\xe8?'
p1761
tp1762
Rp1763
asI7
(lp1764
g19
(g23
S'\xa0>\x16b\xebx\xe8?'
p1765
tp1766
Rp1767
ag19
(g23
S'\t@N\xee\xb7\x91\xe8?'
p1768
tp1769
Rp1770
ag19
(g23
S'\xf5X\xe5f\xe3\xe0\xe8?'
p1771
tp1772
Rp1773
ag19
(g23
S'd\xfd\xae\xfe`\x17\xe9?'
p1774
tp1775
Rp1776
ag19
(g23
S'\x81){\x87\x85\xdc\xe8?'
p1777
tp1778
Rp1779
ag19
(g23
S'\xd4\xb5d9ZF\xe8?'
p1780
tp1781
Rp1782
ag19
(g23
S'\xc2\xe1\xd1\xdd\xf8n\xe8?'
p1783
tp1784
Rp1785
ag19
(g23
S'\xf7\x1b\xe4\xc8\xae\xdd\xe7?'
p1786
tp1787
Rp1788
ag19
(g23
S'\x1eQ`\x15\x9f\x8e\xe8?'
p1789
tp1790
Rp1791
ag19
(g23
S'\x1c\xd1"\xc8\xa2\xca\xe8?'
p1792
tp1793
Rp1794
asI8
(lp1795
g19
(g23
S",^'\xb8\x0c\x9c\xe8?"
p1796
tp1797
Rp1798
ag19
(g23
S'}\xcc\x02\xbe6\xaf\xe8?'
p1799
tp1800
Rp1801
ag19
(g23
S'/\xd3#\x12\x85Z\xe9?'
p1802
tp1803
Rp1804
ag19
(g23
S'2+.\xf7N\xf8\xe8?'
p1805
tp1806
Rp1807
ag19
(g23
S'D\xa085Q\xe0\xe8?'
p1808
tp1809
Rp1810
ag19
(g23
S'\xae\x1d\xd7b\xccx\xe8?'
p1811
tp1812
Rp1813
ag19
(g23
S'\x0e\x9d\xf1\xc2\x01m\xe8?'
p1814
tp1815
Rp1816
ag19
(g23
S'{\xd4\x1bh\x12j\xe8?'
p1817
tp1818
Rp1819
ag19
(g23
S'A\xfc\xa5\xa6W\xdd\xe8?'
p1820
tp1821
Rp1822
ag19
(g23
S'\xa7\x00\x96>\xbd\n\xe9?'
p1823
tp1824
Rp1825
asI9
(lp1826
g19
(g23
S'5\x94L\x91\xe6\xf9\xe8?'
p1827
tp1828
Rp1829
ag19
(g23
S'1\xec\xcb-\xb7D\xe9?'
p1830
tp1831
Rp1832
ag19
(g23
S'\x05u\xb6\xeb{\xf1\xe9?'
p1833
tp1834
Rp1835
ag19
(g23
S'\x9dL\x05^\xa98\xe9?'
p1836
tp1837
Rp1838
ag19
(g23
S'W\x16\x085 \xf7\xe8?'
p1839
tp1840
Rp1841
ag19
(g23
S'\x8a\x03\\z;\xab\xe8?'
p1842
tp1843
Rp1844
ag19
(g23
S'\x0e\x94\xbf+\x18\xbd\xe8?'
p1845
tp1846
Rp1847
ag19
(g23
S'\xc8\xff\xfd\xd18\xe1\xe8?'
p1848
tp1849
Rp1850
ag19
(g23
S'\xc9\xb6\x8e\xf8k\x1e\xe9?'
p1851
tp1852
Rp1853
ag19
(g23
S'u\xb2XI\x05<\xe9?'
p1854
tp1855
Rp1856
asI10
(lp1857
g19
(g23
S'Yl\x10&\xdal\xe9?'
p1858
tp1859
Rp1860
ag19
(g23
S'\xa7\xeb\xc2z\xd1\x8e\xe9?'
p1861
tp1862
Rp1863
ag19
(g23
S'i\x12e\x94\xa7B\xea?'
p1864
tp1865
Rp1866
ag19
(g23
S'\xe0\xc3\xc4Er\x7f\xe9?'
p1867
tp1868
Rp1869
ag19
(g23
S'\xa4cj\xbb]%\xe9?'
p1870
tp1871
Rp1872
ag19
(g23
S'\x92\xbc\xe7\xf3\xe4\xf2\xe8?'
p1873
tp1874
Rp1875
ag19
(g23
S'V|P\xd8r?\xe9?'
p1876
tp1877
Rp1878
ag19
(g23
S'dLL\x87\x1e\x8b\xe8?'
p1879
tp1880
Rp1881
ag19
(g23
S'\x81=\xccK\x8ci\xe9?'
p1882
tp1883
Rp1884
ag19
(g23
S'\x03Gb\x08\xb54\xe9?'
p1885
tp1886
Rp1887
assg366
(dp1888
I0
(lp1889
I0
aI0
aF0.08733624454148471
aI0
aI0
aF0.05240174672489083
aI0
aI0
aF0.04545454545454545
aF0.02631578947368421
asI1
(lp1890
F0.14883720930232558
aF0.21917808219178084
aF0.1187214611872146
aF0.1935483870967742
aF0.06829268292682926
aF0.12962962962962962
aI0
aF0.16666666666666666
aF0.10628019323671499
aF0.10232558139534884
asI2
(lp1891
F0.26
aF0.34123222748815163
aF0.22966507177033493
aF0.3366336633663366
aF0.2673267326732673
aF0.22966507177033493
aF0.21782178217821782
aF0.24615384615384614
aF0.3300970873786408
aF0.2524271844660194
asI3
(lp1892
F0.3850267379679145
aF0.3586956521739131
aF0.2769230769230769
aF0.33519553072625696
aF0.3033707865168539
aF0.3076923076923077
aF0.37037037037037035
aF0.3389830508474576
aF0.34090909090909094
aF0.29787234042553185
asI4
(lp1893
F0.37267080745341613
aF0.4444444444444445
aF0.3468208092485549
aF0.3902439024390244
aF0.43478260869565216
aF0.3563218390804598
aF0.3253012048192771
aF0.3624161073825503
aF0.40259740259740256
aF0.36363636363636365
asI5
(lp1894
F0.393939393939394
aF0.43421052631578944
aF0.3918918918918919
aF0.4492753623188405
aF0.4444444444444445
aF0.3708609271523179
aF0.34285714285714286
aF0.38399999999999995
aF0.4296296296296296
aF0.3795620437956204
asI6
(lp1895
F0.4
aF0.42187499999999994
aF0.4461538461538461
aF0.4552845528455285
aF0.47058823529411764
aF0.4307692307692308
aF0.39344262295081966
aF0.38461538461538464
aF0.4576271186440678
aF0.4227642276422764
asI7
(lp1896
F0.4123711340206186
aF0.4347826086956523
aF0.46428571428571436
aF0.4716981132075471
aF0.4318181818181819
aF0.39215686274509803
aF0.40740740740740744
aF0.3736263736263737
aF0.4375
aF0.46846846846846846
asI8
(lp1897
F0.42696629213483145
aF0.4489795918367347
aF0.510204081632653
aF0.46153846153846156
aF0.4324324324324324
aF0.41304347826086957
aF0.4090909090909091
aF0.4109589041095891
aF0.45238095238095244
aF0.46808510638297873
asI9
(lp1898
F0.4634146341463415
aF0.5060240963855421
aF0.5647058823529413
aF0.4871794871794871
aF0.4411764705882353
aF0.43373493975903615
aF0.4415584415584416
aF0.45901639344262296
aF0.4788732394366197
aF0.4878048780487805
asI10
(lp1899
F0.5066666666666667
aF0.5352112676056339
aF0.5925925925925927
aF0.5135135135135135
aF0.45901639344262296
aF0.46153846153846156
aF0.49230769230769234
aF0.4313725490196078
aF0.5079365079365079
aF0.48648648648648646
assg379
(dp1900
I0
(lp1901
F0.9266238323080428
aF0.926951487767526
aF0.9508019095919
aF0.9279346137301044
aF0.9262962034610662
aF0.94696969883344
aF0.9243309897515802
aF0.926951487767526
aF0.9505481842158654
aF0.9518828096090665
asI1
(lp1902
F0.9574609873254716
aF0.9608458962819304
aF0.9547084625969717
aF0.9583916187358483
aF0.953288735533144
aF0.9560327071252595
aF0.929452116262199
aF0.9555569996326241
aF0.95929248395225
aF0.954270488321662
asI2
(lp1903
F0.9652283197306339
aF0.9673802937385493
aF0.9610573040388388
aF0.9684637946388519
aF0.9640507257681359
aF0.9606152049131707
aF0.9639560043912075
aF0.9640108400444374
aF0.9666500043977333
aF0.964374676739491
asI3
(lp1904
F0.9726492214025375
aF0.9724768926362367
aF0.9657040740887683
aF0.9718112008089163
aF0.9701424003759886
aF0.9664824160444464
aF0.9714074033504613
aF0.9711617027037772
aF0.9721936916358935
aF0.9686852172388708
asI4
(lp1905
F0.9754842051264069
aF0.9771591505748145
aF0.9725952000204714
aF0.9760554127191574
aF0.9778490279574418
aF0.9728764631521929
aF0.9734105433243683
aF0.9758448469654054
aF0.977112517467936
aF0.9745203316364791
asI5
(lp1906
F0.9804341146029394
aF0.9794055683358303
aF0.9778499602582447
aF0.9820003729949521
aF0.9819752997529484
aF0.9768614681878897
aF0.9781574269995769
aF0.9808619870510904
aF0.9810381942432725
aF0.9792184706107018
asI6
(lp1907
F0.9830763120538458
aF0.9819499010781657
aF0.9822502338449608
aF0.9839032110754496
aF0.9846343567254726
aF0.9819691091329245
aF0.9821879290044986
aF0.9842182515472476
aF0.9841720804172434
aF0.982420437129308
asI7
(lp1908
F0.9860393333747626
aF0.9839050596048342
aF0.9851550247282944
aF0.9863425333326371
aF0.9880247151425575
aF0.9848227464074665
aF0.9843675209082334
aF0.9856775650598287
aF0.9865398172816436
aF0.9852089977280014
asI8
(lp1909
F0.9873353741083299
aF0.986398740742902
aF0.987955698763655
aF0.9878556755256603
aF0.9898087690847626
aF0.9865945161443344
aF0.9870722890704506
aF0.9892510463949409
aF0.9885713330987114
aF0.9876206898395719
asI9
(lp1910
F0.9889318269528182
aF0.989523446927378
aF0.9905861647593458
aF0.9899342529795752
aF0.9906614632949587
aF0.9881660085563289
aF0.9891541824779038
aF0.9916270085671881
aF0.9906626819334782
aF0.9894446922351958
asI10
(lp1911
F0.9905707904542755
aF0.9914329025705525
aF0.9914993680773516
aF0.9908248434188762
aF0.9917841496017851
aF0.9892882914181663
aF0.9915531520721642
aF0.992492379252474
aF0.9920640333987657
aF0.9903049431526075
asss.